
TP_STM32L021K4T6.elf:     file format elf32-littlearm

Sections:
Idx Name          Size      VMA       LMA       File off  Algn
  0 .isr_vector   000000c0  08000000  08000000  00010000  2**0
                  CONTENTS, ALLOC, LOAD, READONLY, DATA
  1 .text         00001de0  080000c0  080000c0  000100c0  2**2
                  CONTENTS, ALLOC, LOAD, READONLY, CODE
  2 .rodata       00000034  08001ea0  08001ea0  00011ea0  2**2
                  CONTENTS, ALLOC, LOAD, READONLY, DATA
  3 .ARM.extab    00000000  08001ed4  08001ed4  00020008  2**0
                  CONTENTS
  4 .ARM          00000000  08001ed4  08001ed4  00020008  2**0
                  CONTENTS
  5 .preinit_array 00000000  08001ed4  08001ed4  00020008  2**0
                  CONTENTS, ALLOC, LOAD, DATA
  6 .init_array   00000004  08001ed4  08001ed4  00011ed4  2**2
                  CONTENTS, ALLOC, LOAD, DATA
  7 .fini_array   00000004  08001ed8  08001ed8  00011ed8  2**2
                  CONTENTS, ALLOC, LOAD, DATA
  8 .data         00000008  20000000  08001edc  00020000  2**2
                  CONTENTS, ALLOC, LOAD, DATA
  9 .bss          00000020  20000008  08001ee4  00020008  2**2
                  ALLOC
 10 ._user_heap_stack 00000600  20000028  08001ee4  00020028  2**0
                  ALLOC
 11 .ARM.attributes 00000028  00000000  00000000  00020008  2**0
                  CONTENTS, READONLY
 12 .comment      00000043  00000000  00000000  00020030  2**0
                  CONTENTS, READONLY
 13 .debug_info   00004fdb  00000000  00000000  00020073  2**0
                  CONTENTS, READONLY, DEBUGGING, OCTETS
 14 .debug_abbrev 00001349  00000000  00000000  0002504e  2**0
                  CONTENTS, READONLY, DEBUGGING, OCTETS
 15 .debug_aranges 00000760  00000000  00000000  00026398  2**3
                  CONTENTS, READONLY, DEBUGGING, OCTETS
 16 .debug_rnglists 0000056b  00000000  00000000  00026af8  2**0
                  CONTENTS, READONLY, DEBUGGING, OCTETS
 17 .debug_macro  0000c92d  00000000  00000000  00027063  2**0
                  CONTENTS, READONLY, DEBUGGING, OCTETS
 18 .debug_line   00005c0b  00000000  00000000  00033990  2**0
                  CONTENTS, READONLY, DEBUGGING, OCTETS
 19 .debug_str    000430c9  00000000  00000000  0003959b  2**0
                  CONTENTS, READONLY, DEBUGGING, OCTETS
 20 .debug_frame  0000192c  00000000  00000000  0007c664  2**2
                  CONTENTS, READONLY, DEBUGGING, OCTETS
 21 .debug_line_str 00000098  00000000  00000000  0007df90  2**0
                  CONTENTS, READONLY, DEBUGGING, OCTETS

Disassembly of section .text:

080000c0 <__do_global_dtors_aux>:
 80000c0:	b510      	push	{r4, lr}
 80000c2:	4c06      	ldr	r4, [pc, #24]	; (80000dc <__do_global_dtors_aux+0x1c>)
 80000c4:	7823      	ldrb	r3, [r4, #0]
 80000c6:	2b00      	cmp	r3, #0
 80000c8:	d107      	bne.n	80000da <__do_global_dtors_aux+0x1a>
 80000ca:	4b05      	ldr	r3, [pc, #20]	; (80000e0 <__do_global_dtors_aux+0x20>)
 80000cc:	2b00      	cmp	r3, #0
 80000ce:	d002      	beq.n	80000d6 <__do_global_dtors_aux+0x16>
 80000d0:	4804      	ldr	r0, [pc, #16]	; (80000e4 <__do_global_dtors_aux+0x24>)
 80000d2:	e000      	b.n	80000d6 <__do_global_dtors_aux+0x16>
 80000d4:	bf00      	nop
 80000d6:	2301      	movs	r3, #1
 80000d8:	7023      	strb	r3, [r4, #0]
 80000da:	bd10      	pop	{r4, pc}
 80000dc:	20000008 	.word	0x20000008
 80000e0:	00000000 	.word	0x00000000
 80000e4:	08001e88 	.word	0x08001e88

080000e8 <frame_dummy>:
 80000e8:	4b04      	ldr	r3, [pc, #16]	; (80000fc <frame_dummy+0x14>)
 80000ea:	b510      	push	{r4, lr}
 80000ec:	2b00      	cmp	r3, #0
 80000ee:	d003      	beq.n	80000f8 <frame_dummy+0x10>
 80000f0:	4903      	ldr	r1, [pc, #12]	; (8000100 <frame_dummy+0x18>)
 80000f2:	4804      	ldr	r0, [pc, #16]	; (8000104 <frame_dummy+0x1c>)
 80000f4:	e000      	b.n	80000f8 <frame_dummy+0x10>
 80000f6:	bf00      	nop
 80000f8:	bd10      	pop	{r4, pc}
 80000fa:	46c0      	nop			; (mov r8, r8)
 80000fc:	00000000 	.word	0x00000000
 8000100:	2000000c 	.word	0x2000000c
 8000104:	08001e88 	.word	0x08001e88

08000108 <__udivsi3>:
 8000108:	2200      	movs	r2, #0
 800010a:	0843      	lsrs	r3, r0, #1
 800010c:	428b      	cmp	r3, r1
 800010e:	d374      	bcc.n	80001fa <__udivsi3+0xf2>
 8000110:	0903      	lsrs	r3, r0, #4
 8000112:	428b      	cmp	r3, r1
 8000114:	d35f      	bcc.n	80001d6 <__udivsi3+0xce>
 8000116:	0a03      	lsrs	r3, r0, #8
 8000118:	428b      	cmp	r3, r1
 800011a:	d344      	bcc.n	80001a6 <__udivsi3+0x9e>
 800011c:	0b03      	lsrs	r3, r0, #12
 800011e:	428b      	cmp	r3, r1
 8000120:	d328      	bcc.n	8000174 <__udivsi3+0x6c>
 8000122:	0c03      	lsrs	r3, r0, #16
 8000124:	428b      	cmp	r3, r1
 8000126:	d30d      	bcc.n	8000144 <__udivsi3+0x3c>
 8000128:	22ff      	movs	r2, #255	; 0xff
 800012a:	0209      	lsls	r1, r1, #8
 800012c:	ba12      	rev	r2, r2
 800012e:	0c03      	lsrs	r3, r0, #16
 8000130:	428b      	cmp	r3, r1
 8000132:	d302      	bcc.n	800013a <__udivsi3+0x32>
 8000134:	1212      	asrs	r2, r2, #8
 8000136:	0209      	lsls	r1, r1, #8
 8000138:	d065      	beq.n	8000206 <__udivsi3+0xfe>
 800013a:	0b03      	lsrs	r3, r0, #12
 800013c:	428b      	cmp	r3, r1
 800013e:	d319      	bcc.n	8000174 <__udivsi3+0x6c>
 8000140:	e000      	b.n	8000144 <__udivsi3+0x3c>
 8000142:	0a09      	lsrs	r1, r1, #8
 8000144:	0bc3      	lsrs	r3, r0, #15
 8000146:	428b      	cmp	r3, r1
 8000148:	d301      	bcc.n	800014e <__udivsi3+0x46>
 800014a:	03cb      	lsls	r3, r1, #15
 800014c:	1ac0      	subs	r0, r0, r3
 800014e:	4152      	adcs	r2, r2
 8000150:	0b83      	lsrs	r3, r0, #14
 8000152:	428b      	cmp	r3, r1
 8000154:	d301      	bcc.n	800015a <__udivsi3+0x52>
 8000156:	038b      	lsls	r3, r1, #14
 8000158:	1ac0      	subs	r0, r0, r3
 800015a:	4152      	adcs	r2, r2
 800015c:	0b43      	lsrs	r3, r0, #13
 800015e:	428b      	cmp	r3, r1
 8000160:	d301      	bcc.n	8000166 <__udivsi3+0x5e>
 8000162:	034b      	lsls	r3, r1, #13
 8000164:	1ac0      	subs	r0, r0, r3
 8000166:	4152      	adcs	r2, r2
 8000168:	0b03      	lsrs	r3, r0, #12
 800016a:	428b      	cmp	r3, r1
 800016c:	d301      	bcc.n	8000172 <__udivsi3+0x6a>
 800016e:	030b      	lsls	r3, r1, #12
 8000170:	1ac0      	subs	r0, r0, r3
 8000172:	4152      	adcs	r2, r2
 8000174:	0ac3      	lsrs	r3, r0, #11
 8000176:	428b      	cmp	r3, r1
 8000178:	d301      	bcc.n	800017e <__udivsi3+0x76>
 800017a:	02cb      	lsls	r3, r1, #11
 800017c:	1ac0      	subs	r0, r0, r3
 800017e:	4152      	adcs	r2, r2
 8000180:	0a83      	lsrs	r3, r0, #10
 8000182:	428b      	cmp	r3, r1
 8000184:	d301      	bcc.n	800018a <__udivsi3+0x82>
 8000186:	028b      	lsls	r3, r1, #10
 8000188:	1ac0      	subs	r0, r0, r3
 800018a:	4152      	adcs	r2, r2
 800018c:	0a43      	lsrs	r3, r0, #9
 800018e:	428b      	cmp	r3, r1
 8000190:	d301      	bcc.n	8000196 <__udivsi3+0x8e>
 8000192:	024b      	lsls	r3, r1, #9
 8000194:	1ac0      	subs	r0, r0, r3
 8000196:	4152      	adcs	r2, r2
 8000198:	0a03      	lsrs	r3, r0, #8
 800019a:	428b      	cmp	r3, r1
 800019c:	d301      	bcc.n	80001a2 <__udivsi3+0x9a>
 800019e:	020b      	lsls	r3, r1, #8
 80001a0:	1ac0      	subs	r0, r0, r3
 80001a2:	4152      	adcs	r2, r2
 80001a4:	d2cd      	bcs.n	8000142 <__udivsi3+0x3a>
 80001a6:	09c3      	lsrs	r3, r0, #7
 80001a8:	428b      	cmp	r3, r1
 80001aa:	d301      	bcc.n	80001b0 <__udivsi3+0xa8>
 80001ac:	01cb      	lsls	r3, r1, #7
 80001ae:	1ac0      	subs	r0, r0, r3
 80001b0:	4152      	adcs	r2, r2
 80001b2:	0983      	lsrs	r3, r0, #6
 80001b4:	428b      	cmp	r3, r1
 80001b6:	d301      	bcc.n	80001bc <__udivsi3+0xb4>
 80001b8:	018b      	lsls	r3, r1, #6
 80001ba:	1ac0      	subs	r0, r0, r3
 80001bc:	4152      	adcs	r2, r2
 80001be:	0943      	lsrs	r3, r0, #5
 80001c0:	428b      	cmp	r3, r1
 80001c2:	d301      	bcc.n	80001c8 <__udivsi3+0xc0>
 80001c4:	014b      	lsls	r3, r1, #5
 80001c6:	1ac0      	subs	r0, r0, r3
 80001c8:	4152      	adcs	r2, r2
 80001ca:	0903      	lsrs	r3, r0, #4
 80001cc:	428b      	cmp	r3, r1
 80001ce:	d301      	bcc.n	80001d4 <__udivsi3+0xcc>
 80001d0:	010b      	lsls	r3, r1, #4
 80001d2:	1ac0      	subs	r0, r0, r3
 80001d4:	4152      	adcs	r2, r2
 80001d6:	08c3      	lsrs	r3, r0, #3
 80001d8:	428b      	cmp	r3, r1
 80001da:	d301      	bcc.n	80001e0 <__udivsi3+0xd8>
 80001dc:	00cb      	lsls	r3, r1, #3
 80001de:	1ac0      	subs	r0, r0, r3
 80001e0:	4152      	adcs	r2, r2
 80001e2:	0883      	lsrs	r3, r0, #2
 80001e4:	428b      	cmp	r3, r1
 80001e6:	d301      	bcc.n	80001ec <__udivsi3+0xe4>
 80001e8:	008b      	lsls	r3, r1, #2
 80001ea:	1ac0      	subs	r0, r0, r3
 80001ec:	4152      	adcs	r2, r2
 80001ee:	0843      	lsrs	r3, r0, #1
 80001f0:	428b      	cmp	r3, r1
 80001f2:	d301      	bcc.n	80001f8 <__udivsi3+0xf0>
 80001f4:	004b      	lsls	r3, r1, #1
 80001f6:	1ac0      	subs	r0, r0, r3
 80001f8:	4152      	adcs	r2, r2
 80001fa:	1a41      	subs	r1, r0, r1
 80001fc:	d200      	bcs.n	8000200 <__udivsi3+0xf8>
 80001fe:	4601      	mov	r1, r0
 8000200:	4152      	adcs	r2, r2
 8000202:	4610      	mov	r0, r2
 8000204:	4770      	bx	lr
 8000206:	e7ff      	b.n	8000208 <__udivsi3+0x100>
 8000208:	b501      	push	{r0, lr}
 800020a:	2000      	movs	r0, #0
 800020c:	f000 f806 	bl	800021c <__aeabi_idiv0>
 8000210:	bd02      	pop	{r1, pc}
 8000212:	46c0      	nop			; (mov r8, r8)

08000214 <__aeabi_uidivmod>:
 8000214:	2900      	cmp	r1, #0
 8000216:	d0f7      	beq.n	8000208 <__udivsi3+0x100>
 8000218:	e776      	b.n	8000108 <__udivsi3>
 800021a:	4770      	bx	lr

0800021c <__aeabi_idiv0>:
 800021c:	4770      	bx	lr
 800021e:	46c0      	nop			; (mov r8, r8)

08000220 <LL_TIM_EnableCounter>:
  * @rmtoll CR1          CEN           LL_TIM_EnableCounter
  * @param  TIMx Timer instance
  * @retval None
  */
__STATIC_INLINE void LL_TIM_EnableCounter(TIM_TypeDef *TIMx)
{
 8000220:	b580      	push	{r7, lr}
 8000222:	b082      	sub	sp, #8
 8000224:	af00      	add	r7, sp, #0
 8000226:	6078      	str	r0, [r7, #4]
  SET_BIT(TIMx->CR1, TIM_CR1_CEN);
 8000228:	687b      	ldr	r3, [r7, #4]
 800022a:	681b      	ldr	r3, [r3, #0]
 800022c:	2201      	movs	r2, #1
 800022e:	431a      	orrs	r2, r3
 8000230:	687b      	ldr	r3, [r7, #4]
 8000232:	601a      	str	r2, [r3, #0]
}
 8000234:	46c0      	nop			; (mov r8, r8)
 8000236:	46bd      	mov	sp, r7
 8000238:	b002      	add	sp, #8
 800023a:	bd80      	pop	{r7, pc}

0800023c <LL_TIM_CC_EnableChannel>:
  *         @arg @ref LL_TIM_CHANNEL_CH3
  *         @arg @ref LL_TIM_CHANNEL_CH4
  * @retval None
  */
__STATIC_INLINE void LL_TIM_CC_EnableChannel(TIM_TypeDef *TIMx, uint32_t Channels)
{
 800023c:	b580      	push	{r7, lr}
 800023e:	b082      	sub	sp, #8
 8000240:	af00      	add	r7, sp, #0
 8000242:	6078      	str	r0, [r7, #4]
 8000244:	6039      	str	r1, [r7, #0]
  SET_BIT(TIMx->CCER, Channels);
 8000246:	687b      	ldr	r3, [r7, #4]
 8000248:	6a1a      	ldr	r2, [r3, #32]
 800024a:	683b      	ldr	r3, [r7, #0]
 800024c:	431a      	orrs	r2, r3
 800024e:	687b      	ldr	r3, [r7, #4]
 8000250:	621a      	str	r2, [r3, #32]
}
 8000252:	46c0      	nop			; (mov r8, r8)
 8000254:	46bd      	mov	sp, r7
 8000256:	b002      	add	sp, #8
 8000258:	bd80      	pop	{r7, pc}

0800025a <LL_TIM_OC_SetCompareCH1>:
  * @param  TIMx Timer instance
  * @param  CompareValue between Min_Data=0 and Max_Data=65535
  * @retval None
  */
__STATIC_INLINE void LL_TIM_OC_SetCompareCH1(TIM_TypeDef *TIMx, uint32_t CompareValue)
{
 800025a:	b580      	push	{r7, lr}
 800025c:	b082      	sub	sp, #8
 800025e:	af00      	add	r7, sp, #0
 8000260:	6078      	str	r0, [r7, #4]
 8000262:	6039      	str	r1, [r7, #0]
  WRITE_REG(TIMx->CCR1, CompareValue);
 8000264:	687b      	ldr	r3, [r7, #4]
 8000266:	683a      	ldr	r2, [r7, #0]
 8000268:	635a      	str	r2, [r3, #52]	; 0x34
}
 800026a:	46c0      	nop			; (mov r8, r8)
 800026c:	46bd      	mov	sp, r7
 800026e:	b002      	add	sp, #8
 8000270:	bd80      	pop	{r7, pc}

08000272 <LedStart>:
	uint8_t brightness = 0;



void LedStart(void)
{
 8000272:	b580      	push	{r7, lr}
 8000274:	af00      	add	r7, sp, #0
	LL_TIM_EnableCounter(TIM2);
 8000276:	2380      	movs	r3, #128	; 0x80
 8000278:	05db      	lsls	r3, r3, #23
 800027a:	0018      	movs	r0, r3
 800027c:	f7ff ffd0 	bl	8000220 <LL_TIM_EnableCounter>
	LL_TIM_CC_EnableChannel(TIM2, LL_TIM_CHANNEL_CH1);
 8000280:	2380      	movs	r3, #128	; 0x80
 8000282:	05db      	lsls	r3, r3, #23
 8000284:	2101      	movs	r1, #1
 8000286:	0018      	movs	r0, r3
 8000288:	f7ff ffd8 	bl	800023c <LL_TIM_CC_EnableChannel>
}
 800028c:	46c0      	nop			; (mov r8, r8)
 800028e:	46bd      	mov	sp, r7
 8000290:	bd80      	pop	{r7, pc}

08000292 <LedSetValue>:

void LedSetValue(uint8_t val)
{
 8000292:	b580      	push	{r7, lr}
 8000294:	b082      	sub	sp, #8
 8000296:	af00      	add	r7, sp, #0
 8000298:	0002      	movs	r2, r0
 800029a:	1dfb      	adds	r3, r7, #7
 800029c:	701a      	strb	r2, [r3, #0]
	LL_TIM_OC_SetCompareCH1(TIM2, val);
 800029e:	1dfb      	adds	r3, r7, #7
 80002a0:	781a      	ldrb	r2, [r3, #0]
 80002a2:	2380      	movs	r3, #128	; 0x80
 80002a4:	05db      	lsls	r3, r3, #23
 80002a6:	0011      	movs	r1, r2
 80002a8:	0018      	movs	r0, r3
 80002aa:	f7ff ffd6 	bl	800025a <LL_TIM_OC_SetCompareCH1>
}
 80002ae:	46c0      	nop			; (mov r8, r8)
 80002b0:	46bd      	mov	sp, r7
 80002b2:	b002      	add	sp, #8
 80002b4:	bd80      	pop	{r7, pc}
	...

080002b8 <LedPulse>:

void LedPulse(void)
{
 80002b8:	b580      	push	{r7, lr}
 80002ba:	af00      	add	r7, sp, #0
	// Fonction pour incrémenter ou décrémenter la luminosité de la LED
    static int direction = 1; // 1 pour incrémenter, -1 pour décrémenter

    // Incrémente ou décrémente la luminosité en fonction de la direction
    brightness += direction;
 80002bc:	4b0f      	ldr	r3, [pc, #60]	; (80002fc <LedPulse+0x44>)
 80002be:	681b      	ldr	r3, [r3, #0]
 80002c0:	b2da      	uxtb	r2, r3
 80002c2:	4b0f      	ldr	r3, [pc, #60]	; (8000300 <LedPulse+0x48>)
 80002c4:	781b      	ldrb	r3, [r3, #0]
 80002c6:	18d3      	adds	r3, r2, r3
 80002c8:	b2da      	uxtb	r2, r3
 80002ca:	4b0d      	ldr	r3, [pc, #52]	; (8000300 <LedPulse+0x48>)
 80002cc:	701a      	strb	r2, [r3, #0]

    // Si la luminosité atteint la valeur maximale, change de direction
    if (brightness >= MAX_BRIGHTNESS) {
 80002ce:	4b0c      	ldr	r3, [pc, #48]	; (8000300 <LedPulse+0x48>)
 80002d0:	781b      	ldrb	r3, [r3, #0]
 80002d2:	2bff      	cmp	r3, #255	; 0xff
 80002d4:	d103      	bne.n	80002de <LedPulse+0x26>
        direction = -1; // Change de direction pour décrémenter
 80002d6:	4b09      	ldr	r3, [pc, #36]	; (80002fc <LedPulse+0x44>)
 80002d8:	2201      	movs	r2, #1
 80002da:	4252      	negs	r2, r2
 80002dc:	601a      	str	r2, [r3, #0]
    }

    // Si la luminosité atteint 0, change de direction
    if (brightness <= 0) {
 80002de:	4b08      	ldr	r3, [pc, #32]	; (8000300 <LedPulse+0x48>)
 80002e0:	781b      	ldrb	r3, [r3, #0]
 80002e2:	2b00      	cmp	r3, #0
 80002e4:	d102      	bne.n	80002ec <LedPulse+0x34>
        direction = 1; // Change de direction pour incrémenter
 80002e6:	4b05      	ldr	r3, [pc, #20]	; (80002fc <LedPulse+0x44>)
 80002e8:	2201      	movs	r2, #1
 80002ea:	601a      	str	r2, [r3, #0]
    }

    LedSetValue(brightness);
 80002ec:	4b04      	ldr	r3, [pc, #16]	; (8000300 <LedPulse+0x48>)
 80002ee:	781b      	ldrb	r3, [r3, #0]
 80002f0:	0018      	movs	r0, r3
 80002f2:	f7ff ffce 	bl	8000292 <LedSetValue>
}
 80002f6:	46c0      	nop			; (mov r8, r8)
 80002f8:	46bd      	mov	sp, r7
 80002fa:	bd80      	pop	{r7, pc}
 80002fc:	20000000 	.word	0x20000000
 8000300:	20000024 	.word	0x20000024

08000304 <__NVIC_SetPriority>:
  \param [in]      IRQn  Interrupt number.
  \param [in]  priority  Priority to set.
  \note    The priority cannot be set for every processor exception.
 */
__STATIC_INLINE void __NVIC_SetPriority(IRQn_Type IRQn, uint32_t priority)
{
 8000304:	b590      	push	{r4, r7, lr}
 8000306:	b083      	sub	sp, #12
 8000308:	af00      	add	r7, sp, #0
 800030a:	0002      	movs	r2, r0
 800030c:	6039      	str	r1, [r7, #0]
 800030e:	1dfb      	adds	r3, r7, #7
 8000310:	701a      	strb	r2, [r3, #0]
  if ((int32_t)(IRQn) >= 0)
 8000312:	1dfb      	adds	r3, r7, #7
 8000314:	781b      	ldrb	r3, [r3, #0]
 8000316:	2b7f      	cmp	r3, #127	; 0x7f
 8000318:	d828      	bhi.n	800036c <__NVIC_SetPriority+0x68>
  {
    NVIC->IP[_IP_IDX(IRQn)]  = ((uint32_t)(NVIC->IP[_IP_IDX(IRQn)]  & ~(0xFFUL << _BIT_SHIFT(IRQn))) |
 800031a:	4a2f      	ldr	r2, [pc, #188]	; (80003d8 <__NVIC_SetPriority+0xd4>)
 800031c:	1dfb      	adds	r3, r7, #7
 800031e:	781b      	ldrb	r3, [r3, #0]
 8000320:	b25b      	sxtb	r3, r3
 8000322:	089b      	lsrs	r3, r3, #2
 8000324:	33c0      	adds	r3, #192	; 0xc0
 8000326:	009b      	lsls	r3, r3, #2
 8000328:	589b      	ldr	r3, [r3, r2]
 800032a:	1dfa      	adds	r2, r7, #7
 800032c:	7812      	ldrb	r2, [r2, #0]
 800032e:	0011      	movs	r1, r2
 8000330:	2203      	movs	r2, #3
 8000332:	400a      	ands	r2, r1
 8000334:	00d2      	lsls	r2, r2, #3
 8000336:	21ff      	movs	r1, #255	; 0xff
 8000338:	4091      	lsls	r1, r2
 800033a:	000a      	movs	r2, r1
 800033c:	43d2      	mvns	r2, r2
 800033e:	401a      	ands	r2, r3
 8000340:	0011      	movs	r1, r2
       (((priority << (8U - __NVIC_PRIO_BITS)) & (uint32_t)0xFFUL) << _BIT_SHIFT(IRQn)));
 8000342:	683b      	ldr	r3, [r7, #0]
 8000344:	019b      	lsls	r3, r3, #6
 8000346:	22ff      	movs	r2, #255	; 0xff
 8000348:	401a      	ands	r2, r3
 800034a:	1dfb      	adds	r3, r7, #7
 800034c:	781b      	ldrb	r3, [r3, #0]
 800034e:	0018      	movs	r0, r3
 8000350:	2303      	movs	r3, #3
 8000352:	4003      	ands	r3, r0
 8000354:	00db      	lsls	r3, r3, #3
 8000356:	409a      	lsls	r2, r3
    NVIC->IP[_IP_IDX(IRQn)]  = ((uint32_t)(NVIC->IP[_IP_IDX(IRQn)]  & ~(0xFFUL << _BIT_SHIFT(IRQn))) |
 8000358:	481f      	ldr	r0, [pc, #124]	; (80003d8 <__NVIC_SetPriority+0xd4>)
 800035a:	1dfb      	adds	r3, r7, #7
 800035c:	781b      	ldrb	r3, [r3, #0]
 800035e:	b25b      	sxtb	r3, r3
 8000360:	089b      	lsrs	r3, r3, #2
 8000362:	430a      	orrs	r2, r1
 8000364:	33c0      	adds	r3, #192	; 0xc0
 8000366:	009b      	lsls	r3, r3, #2
 8000368:	501a      	str	r2, [r3, r0]
  else
  {
    SCB->SHP[_SHP_IDX(IRQn)] = ((uint32_t)(SCB->SHP[_SHP_IDX(IRQn)] & ~(0xFFUL << _BIT_SHIFT(IRQn))) |
       (((priority << (8U - __NVIC_PRIO_BITS)) & (uint32_t)0xFFUL) << _BIT_SHIFT(IRQn)));
  }
}
 800036a:	e031      	b.n	80003d0 <__NVIC_SetPriority+0xcc>
    SCB->SHP[_SHP_IDX(IRQn)] = ((uint32_t)(SCB->SHP[_SHP_IDX(IRQn)] & ~(0xFFUL << _BIT_SHIFT(IRQn))) |
 800036c:	4a1b      	ldr	r2, [pc, #108]	; (80003dc <__NVIC_SetPriority+0xd8>)
 800036e:	1dfb      	adds	r3, r7, #7
 8000370:	781b      	ldrb	r3, [r3, #0]
 8000372:	0019      	movs	r1, r3
 8000374:	230f      	movs	r3, #15
 8000376:	400b      	ands	r3, r1
 8000378:	3b08      	subs	r3, #8
 800037a:	089b      	lsrs	r3, r3, #2
 800037c:	3306      	adds	r3, #6
 800037e:	009b      	lsls	r3, r3, #2
 8000380:	18d3      	adds	r3, r2, r3
 8000382:	3304      	adds	r3, #4
 8000384:	681b      	ldr	r3, [r3, #0]
 8000386:	1dfa      	adds	r2, r7, #7
 8000388:	7812      	ldrb	r2, [r2, #0]
 800038a:	0011      	movs	r1, r2
 800038c:	2203      	movs	r2, #3
 800038e:	400a      	ands	r2, r1
 8000390:	00d2      	lsls	r2, r2, #3
 8000392:	21ff      	movs	r1, #255	; 0xff
 8000394:	4091      	lsls	r1, r2
 8000396:	000a      	movs	r2, r1
 8000398:	43d2      	mvns	r2, r2
 800039a:	401a      	ands	r2, r3
 800039c:	0011      	movs	r1, r2
       (((priority << (8U - __NVIC_PRIO_BITS)) & (uint32_t)0xFFUL) << _BIT_SHIFT(IRQn)));
 800039e:	683b      	ldr	r3, [r7, #0]
 80003a0:	019b      	lsls	r3, r3, #6
 80003a2:	22ff      	movs	r2, #255	; 0xff
 80003a4:	401a      	ands	r2, r3
 80003a6:	1dfb      	adds	r3, r7, #7
 80003a8:	781b      	ldrb	r3, [r3, #0]
 80003aa:	0018      	movs	r0, r3
 80003ac:	2303      	movs	r3, #3
 80003ae:	4003      	ands	r3, r0
 80003b0:	00db      	lsls	r3, r3, #3
 80003b2:	409a      	lsls	r2, r3
    SCB->SHP[_SHP_IDX(IRQn)] = ((uint32_t)(SCB->SHP[_SHP_IDX(IRQn)] & ~(0xFFUL << _BIT_SHIFT(IRQn))) |
 80003b4:	4809      	ldr	r0, [pc, #36]	; (80003dc <__NVIC_SetPriority+0xd8>)
 80003b6:	1dfb      	adds	r3, r7, #7
 80003b8:	781b      	ldrb	r3, [r3, #0]
 80003ba:	001c      	movs	r4, r3
 80003bc:	230f      	movs	r3, #15
 80003be:	4023      	ands	r3, r4
 80003c0:	3b08      	subs	r3, #8
 80003c2:	089b      	lsrs	r3, r3, #2
 80003c4:	430a      	orrs	r2, r1
 80003c6:	3306      	adds	r3, #6
 80003c8:	009b      	lsls	r3, r3, #2
 80003ca:	18c3      	adds	r3, r0, r3
 80003cc:	3304      	adds	r3, #4
 80003ce:	601a      	str	r2, [r3, #0]
}
 80003d0:	46c0      	nop			; (mov r8, r8)
 80003d2:	46bd      	mov	sp, r7
 80003d4:	b003      	add	sp, #12
 80003d6:	bd90      	pop	{r4, r7, pc}
 80003d8:	e000e100 	.word	0xe000e100
 80003dc:	e000ed00 	.word	0xe000ed00

080003e0 <LL_ADC_SetCommonFrequencyMode>:
  *         @arg @ref LL_ADC_CLOCK_FREQ_MODE_HIGH
  *         @arg @ref LL_ADC_CLOCK_FREQ_MODE_LOW
  * @retval None
  */
__STATIC_INLINE void LL_ADC_SetCommonFrequencyMode(ADC_Common_TypeDef *ADCxy_COMMON, uint32_t CommonFrequencyMode)
{
 80003e0:	b580      	push	{r7, lr}
 80003e2:	b082      	sub	sp, #8
 80003e4:	af00      	add	r7, sp, #0
 80003e6:	6078      	str	r0, [r7, #4]
 80003e8:	6039      	str	r1, [r7, #0]
  MODIFY_REG(ADCxy_COMMON->CCR, ADC_CCR_LFMEN, CommonFrequencyMode);
 80003ea:	687b      	ldr	r3, [r7, #4]
 80003ec:	681b      	ldr	r3, [r3, #0]
 80003ee:	4a05      	ldr	r2, [pc, #20]	; (8000404 <LL_ADC_SetCommonFrequencyMode+0x24>)
 80003f0:	401a      	ands	r2, r3
 80003f2:	683b      	ldr	r3, [r7, #0]
 80003f4:	431a      	orrs	r2, r3
 80003f6:	687b      	ldr	r3, [r7, #4]
 80003f8:	601a      	str	r2, [r3, #0]
}
 80003fa:	46c0      	nop			; (mov r8, r8)
 80003fc:	46bd      	mov	sp, r7
 80003fe:	b002      	add	sp, #8
 8000400:	bd80      	pop	{r7, pc}
 8000402:	46c0      	nop			; (mov r8, r8)
 8000404:	fdffffff 	.word	0xfdffffff

08000408 <LL_ADC_SetSamplingTimeCommonChannels>:
  *         @arg @ref LL_ADC_SAMPLINGTIME_79CYCLES_5
  *         @arg @ref LL_ADC_SAMPLINGTIME_160CYCLES_5
  * @retval None
  */
__STATIC_INLINE void LL_ADC_SetSamplingTimeCommonChannels(ADC_TypeDef *ADCx, uint32_t SamplingTime)
{
 8000408:	b580      	push	{r7, lr}
 800040a:	b082      	sub	sp, #8
 800040c:	af00      	add	r7, sp, #0
 800040e:	6078      	str	r0, [r7, #4]
 8000410:	6039      	str	r1, [r7, #0]
  MODIFY_REG(ADCx->SMPR, ADC_SMPR_SMP, SamplingTime);
 8000412:	687b      	ldr	r3, [r7, #4]
 8000414:	695b      	ldr	r3, [r3, #20]
 8000416:	2207      	movs	r2, #7
 8000418:	4393      	bics	r3, r2
 800041a:	001a      	movs	r2, r3
 800041c:	683b      	ldr	r3, [r7, #0]
 800041e:	431a      	orrs	r2, r3
 8000420:	687b      	ldr	r3, [r7, #4]
 8000422:	615a      	str	r2, [r3, #20]
}
 8000424:	46c0      	nop			; (mov r8, r8)
 8000426:	46bd      	mov	sp, r7
 8000428:	b002      	add	sp, #8
 800042a:	bd80      	pop	{r7, pc}

0800042c <LL_ADC_REG_SetSequencerScanDirection>:
  *         @arg @ref LL_ADC_REG_SEQ_SCAN_DIR_FORWARD
  *         @arg @ref LL_ADC_REG_SEQ_SCAN_DIR_BACKWARD
  * @retval None
  */
__STATIC_INLINE void LL_ADC_REG_SetSequencerScanDirection(ADC_TypeDef *ADCx, uint32_t ScanDirection)
{
 800042c:	b580      	push	{r7, lr}
 800042e:	b082      	sub	sp, #8
 8000430:	af00      	add	r7, sp, #0
 8000432:	6078      	str	r0, [r7, #4]
 8000434:	6039      	str	r1, [r7, #0]
  MODIFY_REG(ADCx->CFGR1, ADC_CFGR1_SCANDIR, ScanDirection);
 8000436:	687b      	ldr	r3, [r7, #4]
 8000438:	68db      	ldr	r3, [r3, #12]
 800043a:	2204      	movs	r2, #4
 800043c:	4393      	bics	r3, r2
 800043e:	001a      	movs	r2, r3
 8000440:	683b      	ldr	r3, [r7, #0]
 8000442:	431a      	orrs	r2, r3
 8000444:	687b      	ldr	r3, [r7, #4]
 8000446:	60da      	str	r2, [r3, #12]
}
 8000448:	46c0      	nop			; (mov r8, r8)
 800044a:	46bd      	mov	sp, r7
 800044c:	b002      	add	sp, #8
 800044e:	bd80      	pop	{r7, pc}

08000450 <LL_ADC_REG_SetSequencerChAdd>:
  *
  *         (1) On STM32L0, parameter not available on all devices: only on STM32L053xx, STM32L063xx, STM32L073xx, STM32L083xx.
  * @retval None
  */
__STATIC_INLINE void LL_ADC_REG_SetSequencerChAdd(ADC_TypeDef *ADCx, uint32_t Channel)
{
 8000450:	b580      	push	{r7, lr}
 8000452:	b082      	sub	sp, #8
 8000454:	af00      	add	r7, sp, #0
 8000456:	6078      	str	r0, [r7, #4]
 8000458:	6039      	str	r1, [r7, #0]
  /* Parameter "Channel" is used with masks because containing                */
  /* other bits reserved for other purpose.                                   */
  SET_BIT(ADCx->CHSELR, (Channel & ADC_CHANNEL_ID_BITFIELD_MASK));
 800045a:	687b      	ldr	r3, [r7, #4]
 800045c:	6a9a      	ldr	r2, [r3, #40]	; 0x28
 800045e:	683b      	ldr	r3, [r7, #0]
 8000460:	035b      	lsls	r3, r3, #13
 8000462:	0b5b      	lsrs	r3, r3, #13
 8000464:	431a      	orrs	r2, r3
 8000466:	687b      	ldr	r3, [r7, #4]
 8000468:	629a      	str	r2, [r3, #40]	; 0x28
}
 800046a:	46c0      	nop			; (mov r8, r8)
 800046c:	46bd      	mov	sp, r7
 800046e:	b002      	add	sp, #8
 8000470:	bd80      	pop	{r7, pc}

08000472 <LL_ADC_SetOverSamplingScope>:
  *         @arg @ref LL_ADC_OVS_DISABLE
  *         @arg @ref LL_ADC_OVS_GRP_REGULAR_CONTINUED
  * @retval None
  */
__STATIC_INLINE void LL_ADC_SetOverSamplingScope(ADC_TypeDef *ADCx, uint32_t OvsScope)
{
 8000472:	b580      	push	{r7, lr}
 8000474:	b082      	sub	sp, #8
 8000476:	af00      	add	r7, sp, #0
 8000478:	6078      	str	r0, [r7, #4]
 800047a:	6039      	str	r1, [r7, #0]
  MODIFY_REG(ADCx->CFGR2, ADC_CFGR2_OVSE, OvsScope);
 800047c:	687b      	ldr	r3, [r7, #4]
 800047e:	691b      	ldr	r3, [r3, #16]
 8000480:	2201      	movs	r2, #1
 8000482:	4393      	bics	r3, r2
 8000484:	001a      	movs	r2, r3
 8000486:	683b      	ldr	r3, [r7, #0]
 8000488:	431a      	orrs	r2, r3
 800048a:	687b      	ldr	r3, [r7, #4]
 800048c:	611a      	str	r2, [r3, #16]
}
 800048e:	46c0      	nop			; (mov r8, r8)
 8000490:	46bd      	mov	sp, r7
 8000492:	b002      	add	sp, #8
 8000494:	bd80      	pop	{r7, pc}
	...

08000498 <LL_ADC_EnableInternalRegulator>:
  * @rmtoll CR       ADVREGEN       LL_ADC_EnableInternalRegulator
  * @param  ADCx ADC instance
  * @retval None
  */
__STATIC_INLINE void LL_ADC_EnableInternalRegulator(ADC_TypeDef *ADCx)
{
 8000498:	b580      	push	{r7, lr}
 800049a:	b082      	sub	sp, #8
 800049c:	af00      	add	r7, sp, #0
 800049e:	6078      	str	r0, [r7, #4]
  /* Note: Write register with some additional bits forced to state reset     */
  /*       instead of modifying only the selected bit for this function,      */
  /*       to not interfere with bits with HW property "rs".                  */
  MODIFY_REG(ADCx->CR,
 80004a0:	687b      	ldr	r3, [r7, #4]
 80004a2:	689b      	ldr	r3, [r3, #8]
 80004a4:	4a05      	ldr	r2, [pc, #20]	; (80004bc <LL_ADC_EnableInternalRegulator+0x24>)
 80004a6:	4013      	ands	r3, r2
 80004a8:	2280      	movs	r2, #128	; 0x80
 80004aa:	0552      	lsls	r2, r2, #21
 80004ac:	431a      	orrs	r2, r3
 80004ae:	687b      	ldr	r3, [r7, #4]
 80004b0:	609a      	str	r2, [r3, #8]
             ADC_CR_BITS_PROPERTY_RS,
             ADC_CR_ADVREGEN);
}
 80004b2:	46c0      	nop			; (mov r8, r8)
 80004b4:	46bd      	mov	sp, r7
 80004b6:	b002      	add	sp, #8
 80004b8:	bd80      	pop	{r7, pc}
 80004ba:	46c0      	nop			; (mov r8, r8)
 80004bc:	6fffffe8 	.word	0x6fffffe8

080004c0 <LL_ADC_DisableIT_EOC>:
  * @rmtoll IER      EOCIE          LL_ADC_DisableIT_EOC
  * @param  ADCx ADC instance
  * @retval None
  */
__STATIC_INLINE void LL_ADC_DisableIT_EOC(ADC_TypeDef *ADCx)
{
 80004c0:	b580      	push	{r7, lr}
 80004c2:	b082      	sub	sp, #8
 80004c4:	af00      	add	r7, sp, #0
 80004c6:	6078      	str	r0, [r7, #4]
  CLEAR_BIT(ADCx->IER, LL_ADC_IT_EOC);
 80004c8:	687b      	ldr	r3, [r7, #4]
 80004ca:	685b      	ldr	r3, [r3, #4]
 80004cc:	2204      	movs	r2, #4
 80004ce:	4393      	bics	r3, r2
 80004d0:	001a      	movs	r2, r3
 80004d2:	687b      	ldr	r3, [r7, #4]
 80004d4:	605a      	str	r2, [r3, #4]
}
 80004d6:	46c0      	nop			; (mov r8, r8)
 80004d8:	46bd      	mov	sp, r7
 80004da:	b002      	add	sp, #8
 80004dc:	bd80      	pop	{r7, pc}

080004de <LL_ADC_DisableIT_EOS>:
  * @rmtoll IER      EOSEQIE        LL_ADC_DisableIT_EOS
  * @param  ADCx ADC instance
  * @retval None
  */
__STATIC_INLINE void LL_ADC_DisableIT_EOS(ADC_TypeDef *ADCx)
{
 80004de:	b580      	push	{r7, lr}
 80004e0:	b082      	sub	sp, #8
 80004e2:	af00      	add	r7, sp, #0
 80004e4:	6078      	str	r0, [r7, #4]
  CLEAR_BIT(ADCx->IER, LL_ADC_IT_EOS);
 80004e6:	687b      	ldr	r3, [r7, #4]
 80004e8:	685b      	ldr	r3, [r3, #4]
 80004ea:	2208      	movs	r2, #8
 80004ec:	4393      	bics	r3, r2
 80004ee:	001a      	movs	r2, r3
 80004f0:	687b      	ldr	r3, [r7, #4]
 80004f2:	605a      	str	r2, [r3, #4]
}
 80004f4:	46c0      	nop			; (mov r8, r8)
 80004f6:	46bd      	mov	sp, r7
 80004f8:	b002      	add	sp, #8
 80004fa:	bd80      	pop	{r7, pc}

080004fc <LL_RCC_HSI_Enable>:
  * @brief  Enable HSI oscillator
  * @rmtoll CR           HSION         LL_RCC_HSI_Enable
  * @retval None
  */
__STATIC_INLINE void LL_RCC_HSI_Enable(void)
{
 80004fc:	b580      	push	{r7, lr}
 80004fe:	af00      	add	r7, sp, #0
  SET_BIT(RCC->CR, RCC_CR_HSION);
 8000500:	4b04      	ldr	r3, [pc, #16]	; (8000514 <LL_RCC_HSI_Enable+0x18>)
 8000502:	681a      	ldr	r2, [r3, #0]
 8000504:	4b03      	ldr	r3, [pc, #12]	; (8000514 <LL_RCC_HSI_Enable+0x18>)
 8000506:	2101      	movs	r1, #1
 8000508:	430a      	orrs	r2, r1
 800050a:	601a      	str	r2, [r3, #0]
}
 800050c:	46c0      	nop			; (mov r8, r8)
 800050e:	46bd      	mov	sp, r7
 8000510:	bd80      	pop	{r7, pc}
 8000512:	46c0      	nop			; (mov r8, r8)
 8000514:	40021000 	.word	0x40021000

08000518 <LL_RCC_HSI_IsReady>:
  * @brief  Check if HSI clock is ready
  * @rmtoll CR           HSIRDY        LL_RCC_HSI_IsReady
  * @retval State of bit (1 or 0).
  */
__STATIC_INLINE uint32_t LL_RCC_HSI_IsReady(void)
{
 8000518:	b580      	push	{r7, lr}
 800051a:	af00      	add	r7, sp, #0
  return ((READ_BIT(RCC->CR, RCC_CR_HSIRDY) == RCC_CR_HSIRDY) ? 1UL : 0UL);
 800051c:	4b05      	ldr	r3, [pc, #20]	; (8000534 <LL_RCC_HSI_IsReady+0x1c>)
 800051e:	681b      	ldr	r3, [r3, #0]
 8000520:	2204      	movs	r2, #4
 8000522:	4013      	ands	r3, r2
 8000524:	2b04      	cmp	r3, #4
 8000526:	d101      	bne.n	800052c <LL_RCC_HSI_IsReady+0x14>
 8000528:	2301      	movs	r3, #1
 800052a:	e000      	b.n	800052e <LL_RCC_HSI_IsReady+0x16>
 800052c:	2300      	movs	r3, #0
}
 800052e:	0018      	movs	r0, r3
 8000530:	46bd      	mov	sp, r7
 8000532:	bd80      	pop	{r7, pc}
 8000534:	40021000 	.word	0x40021000

08000538 <LL_RCC_HSI_SetCalibTrimming>:
  * @rmtoll ICSCR        HSITRIM       LL_RCC_HSI_SetCalibTrimming
  * @param  Value between Min_Data = 0x00 and Max_Data = 0x1F
  * @retval None
  */
__STATIC_INLINE void LL_RCC_HSI_SetCalibTrimming(uint32_t Value)
{
 8000538:	b580      	push	{r7, lr}
 800053a:	b082      	sub	sp, #8
 800053c:	af00      	add	r7, sp, #0
 800053e:	6078      	str	r0, [r7, #4]
  MODIFY_REG(RCC->ICSCR, RCC_ICSCR_HSITRIM, Value << RCC_ICSCR_HSITRIM_Pos);
 8000540:	4b06      	ldr	r3, [pc, #24]	; (800055c <LL_RCC_HSI_SetCalibTrimming+0x24>)
 8000542:	685b      	ldr	r3, [r3, #4]
 8000544:	4a06      	ldr	r2, [pc, #24]	; (8000560 <LL_RCC_HSI_SetCalibTrimming+0x28>)
 8000546:	4013      	ands	r3, r2
 8000548:	0019      	movs	r1, r3
 800054a:	687b      	ldr	r3, [r7, #4]
 800054c:	021a      	lsls	r2, r3, #8
 800054e:	4b03      	ldr	r3, [pc, #12]	; (800055c <LL_RCC_HSI_SetCalibTrimming+0x24>)
 8000550:	430a      	orrs	r2, r1
 8000552:	605a      	str	r2, [r3, #4]
}
 8000554:	46c0      	nop			; (mov r8, r8)
 8000556:	46bd      	mov	sp, r7
 8000558:	b002      	add	sp, #8
 800055a:	bd80      	pop	{r7, pc}
 800055c:	40021000 	.word	0x40021000
 8000560:	ffffe0ff 	.word	0xffffe0ff

08000564 <LL_RCC_SetSysClkSource>:
  *         @arg @ref LL_RCC_SYS_CLKSOURCE_HSE
  *         @arg @ref LL_RCC_SYS_CLKSOURCE_PLL
  * @retval None
  */
__STATIC_INLINE void LL_RCC_SetSysClkSource(uint32_t Source)
{
 8000564:	b580      	push	{r7, lr}
 8000566:	b082      	sub	sp, #8
 8000568:	af00      	add	r7, sp, #0
 800056a:	6078      	str	r0, [r7, #4]
  MODIFY_REG(RCC->CFGR, RCC_CFGR_SW, Source);
 800056c:	4b06      	ldr	r3, [pc, #24]	; (8000588 <LL_RCC_SetSysClkSource+0x24>)
 800056e:	68db      	ldr	r3, [r3, #12]
 8000570:	2203      	movs	r2, #3
 8000572:	4393      	bics	r3, r2
 8000574:	0019      	movs	r1, r3
 8000576:	4b04      	ldr	r3, [pc, #16]	; (8000588 <LL_RCC_SetSysClkSource+0x24>)
 8000578:	687a      	ldr	r2, [r7, #4]
 800057a:	430a      	orrs	r2, r1
 800057c:	60da      	str	r2, [r3, #12]
}
 800057e:	46c0      	nop			; (mov r8, r8)
 8000580:	46bd      	mov	sp, r7
 8000582:	b002      	add	sp, #8
 8000584:	bd80      	pop	{r7, pc}
 8000586:	46c0      	nop			; (mov r8, r8)
 8000588:	40021000 	.word	0x40021000

0800058c <LL_RCC_GetSysClkSource>:
  *         @arg @ref LL_RCC_SYS_CLKSOURCE_STATUS_HSI
  *         @arg @ref LL_RCC_SYS_CLKSOURCE_STATUS_HSE
  *         @arg @ref LL_RCC_SYS_CLKSOURCE_STATUS_PLL
  */
__STATIC_INLINE uint32_t LL_RCC_GetSysClkSource(void)
{
 800058c:	b580      	push	{r7, lr}
 800058e:	af00      	add	r7, sp, #0
  return (uint32_t)(READ_BIT(RCC->CFGR, RCC_CFGR_SWS));
 8000590:	4b03      	ldr	r3, [pc, #12]	; (80005a0 <LL_RCC_GetSysClkSource+0x14>)
 8000592:	68db      	ldr	r3, [r3, #12]
 8000594:	220c      	movs	r2, #12
 8000596:	4013      	ands	r3, r2
}
 8000598:	0018      	movs	r0, r3
 800059a:	46bd      	mov	sp, r7
 800059c:	bd80      	pop	{r7, pc}
 800059e:	46c0      	nop			; (mov r8, r8)
 80005a0:	40021000 	.word	0x40021000

080005a4 <LL_RCC_SetAHBPrescaler>:
  *         @arg @ref LL_RCC_SYSCLK_DIV_256
  *         @arg @ref LL_RCC_SYSCLK_DIV_512
  * @retval None
  */
__STATIC_INLINE void LL_RCC_SetAHBPrescaler(uint32_t Prescaler)
{
 80005a4:	b580      	push	{r7, lr}
 80005a6:	b082      	sub	sp, #8
 80005a8:	af00      	add	r7, sp, #0
 80005aa:	6078      	str	r0, [r7, #4]
  MODIFY_REG(RCC->CFGR, RCC_CFGR_HPRE, Prescaler);
 80005ac:	4b06      	ldr	r3, [pc, #24]	; (80005c8 <LL_RCC_SetAHBPrescaler+0x24>)
 80005ae:	68db      	ldr	r3, [r3, #12]
 80005b0:	22f0      	movs	r2, #240	; 0xf0
 80005b2:	4393      	bics	r3, r2
 80005b4:	0019      	movs	r1, r3
 80005b6:	4b04      	ldr	r3, [pc, #16]	; (80005c8 <LL_RCC_SetAHBPrescaler+0x24>)
 80005b8:	687a      	ldr	r2, [r7, #4]
 80005ba:	430a      	orrs	r2, r1
 80005bc:	60da      	str	r2, [r3, #12]
}
 80005be:	46c0      	nop			; (mov r8, r8)
 80005c0:	46bd      	mov	sp, r7
 80005c2:	b002      	add	sp, #8
 80005c4:	bd80      	pop	{r7, pc}
 80005c6:	46c0      	nop			; (mov r8, r8)
 80005c8:	40021000 	.word	0x40021000

080005cc <LL_RCC_SetAPB1Prescaler>:
  *         @arg @ref LL_RCC_APB1_DIV_8
  *         @arg @ref LL_RCC_APB1_DIV_16
  * @retval None
  */
__STATIC_INLINE void LL_RCC_SetAPB1Prescaler(uint32_t Prescaler)
{
 80005cc:	b580      	push	{r7, lr}
 80005ce:	b082      	sub	sp, #8
 80005d0:	af00      	add	r7, sp, #0
 80005d2:	6078      	str	r0, [r7, #4]
  MODIFY_REG(RCC->CFGR, RCC_CFGR_PPRE1, Prescaler);
 80005d4:	4b06      	ldr	r3, [pc, #24]	; (80005f0 <LL_RCC_SetAPB1Prescaler+0x24>)
 80005d6:	68db      	ldr	r3, [r3, #12]
 80005d8:	4a06      	ldr	r2, [pc, #24]	; (80005f4 <LL_RCC_SetAPB1Prescaler+0x28>)
 80005da:	4013      	ands	r3, r2
 80005dc:	0019      	movs	r1, r3
 80005de:	4b04      	ldr	r3, [pc, #16]	; (80005f0 <LL_RCC_SetAPB1Prescaler+0x24>)
 80005e0:	687a      	ldr	r2, [r7, #4]
 80005e2:	430a      	orrs	r2, r1
 80005e4:	60da      	str	r2, [r3, #12]
}
 80005e6:	46c0      	nop			; (mov r8, r8)
 80005e8:	46bd      	mov	sp, r7
 80005ea:	b002      	add	sp, #8
 80005ec:	bd80      	pop	{r7, pc}
 80005ee:	46c0      	nop			; (mov r8, r8)
 80005f0:	40021000 	.word	0x40021000
 80005f4:	fffff8ff 	.word	0xfffff8ff

080005f8 <LL_RCC_SetAPB2Prescaler>:
  *         @arg @ref LL_RCC_APB2_DIV_8
  *         @arg @ref LL_RCC_APB2_DIV_16
  * @retval None
  */
__STATIC_INLINE void LL_RCC_SetAPB2Prescaler(uint32_t Prescaler)
{
 80005f8:	b580      	push	{r7, lr}
 80005fa:	b082      	sub	sp, #8
 80005fc:	af00      	add	r7, sp, #0
 80005fe:	6078      	str	r0, [r7, #4]
  MODIFY_REG(RCC->CFGR, RCC_CFGR_PPRE2, Prescaler);
 8000600:	4b06      	ldr	r3, [pc, #24]	; (800061c <LL_RCC_SetAPB2Prescaler+0x24>)
 8000602:	68db      	ldr	r3, [r3, #12]
 8000604:	4a06      	ldr	r2, [pc, #24]	; (8000620 <LL_RCC_SetAPB2Prescaler+0x28>)
 8000606:	4013      	ands	r3, r2
 8000608:	0019      	movs	r1, r3
 800060a:	4b04      	ldr	r3, [pc, #16]	; (800061c <LL_RCC_SetAPB2Prescaler+0x24>)
 800060c:	687a      	ldr	r2, [r7, #4]
 800060e:	430a      	orrs	r2, r1
 8000610:	60da      	str	r2, [r3, #12]
}
 8000612:	46c0      	nop			; (mov r8, r8)
 8000614:	46bd      	mov	sp, r7
 8000616:	b002      	add	sp, #8
 8000618:	bd80      	pop	{r7, pc}
 800061a:	46c0      	nop			; (mov r8, r8)
 800061c:	40021000 	.word	0x40021000
 8000620:	ffffc7ff 	.word	0xffffc7ff

08000624 <LL_RCC_SetUSARTClockSource>:
  *
  *         (*) value not defined in all devices.
  * @retval None
  */
__STATIC_INLINE void LL_RCC_SetUSARTClockSource(uint32_t USARTxSource)
{
 8000624:	b580      	push	{r7, lr}
 8000626:	b082      	sub	sp, #8
 8000628:	af00      	add	r7, sp, #0
 800062a:	6078      	str	r0, [r7, #4]
  MODIFY_REG(RCC->CCIPR, (USARTxSource >> 16U), (USARTxSource & 0x0000FFFFU));
 800062c:	4b08      	ldr	r3, [pc, #32]	; (8000650 <LL_RCC_SetUSARTClockSource+0x2c>)
 800062e:	6cdb      	ldr	r3, [r3, #76]	; 0x4c
 8000630:	687a      	ldr	r2, [r7, #4]
 8000632:	0c12      	lsrs	r2, r2, #16
 8000634:	43d2      	mvns	r2, r2
 8000636:	401a      	ands	r2, r3
 8000638:	0011      	movs	r1, r2
 800063a:	687b      	ldr	r3, [r7, #4]
 800063c:	041b      	lsls	r3, r3, #16
 800063e:	0c1a      	lsrs	r2, r3, #16
 8000640:	4b03      	ldr	r3, [pc, #12]	; (8000650 <LL_RCC_SetUSARTClockSource+0x2c>)
 8000642:	430a      	orrs	r2, r1
 8000644:	64da      	str	r2, [r3, #76]	; 0x4c
}
 8000646:	46c0      	nop			; (mov r8, r8)
 8000648:	46bd      	mov	sp, r7
 800064a:	b002      	add	sp, #8
 800064c:	bd80      	pop	{r7, pc}
 800064e:	46c0      	nop			; (mov r8, r8)
 8000650:	40021000 	.word	0x40021000

08000654 <LL_RCC_PLL_Enable>:
  * @brief  Enable PLL
  * @rmtoll CR           PLLON         LL_RCC_PLL_Enable
  * @retval None
  */
__STATIC_INLINE void LL_RCC_PLL_Enable(void)
{
 8000654:	b580      	push	{r7, lr}
 8000656:	af00      	add	r7, sp, #0
  SET_BIT(RCC->CR, RCC_CR_PLLON);
 8000658:	4b04      	ldr	r3, [pc, #16]	; (800066c <LL_RCC_PLL_Enable+0x18>)
 800065a:	681a      	ldr	r2, [r3, #0]
 800065c:	4b03      	ldr	r3, [pc, #12]	; (800066c <LL_RCC_PLL_Enable+0x18>)
 800065e:	2180      	movs	r1, #128	; 0x80
 8000660:	0449      	lsls	r1, r1, #17
 8000662:	430a      	orrs	r2, r1
 8000664:	601a      	str	r2, [r3, #0]
}
 8000666:	46c0      	nop			; (mov r8, r8)
 8000668:	46bd      	mov	sp, r7
 800066a:	bd80      	pop	{r7, pc}
 800066c:	40021000 	.word	0x40021000

08000670 <LL_RCC_PLL_IsReady>:
  * @brief  Check if PLL Ready
  * @rmtoll CR           PLLRDY        LL_RCC_PLL_IsReady
  * @retval State of bit (1 or 0).
  */
__STATIC_INLINE uint32_t LL_RCC_PLL_IsReady(void)
{
 8000670:	b580      	push	{r7, lr}
 8000672:	af00      	add	r7, sp, #0
  return ((READ_BIT(RCC->CR, RCC_CR_PLLRDY) == RCC_CR_PLLRDY) ? 1UL : 0UL);
 8000674:	4b07      	ldr	r3, [pc, #28]	; (8000694 <LL_RCC_PLL_IsReady+0x24>)
 8000676:	681a      	ldr	r2, [r3, #0]
 8000678:	2380      	movs	r3, #128	; 0x80
 800067a:	049b      	lsls	r3, r3, #18
 800067c:	401a      	ands	r2, r3
 800067e:	2380      	movs	r3, #128	; 0x80
 8000680:	049b      	lsls	r3, r3, #18
 8000682:	429a      	cmp	r2, r3
 8000684:	d101      	bne.n	800068a <LL_RCC_PLL_IsReady+0x1a>
 8000686:	2301      	movs	r3, #1
 8000688:	e000      	b.n	800068c <LL_RCC_PLL_IsReady+0x1c>
 800068a:	2300      	movs	r3, #0
}
 800068c:	0018      	movs	r0, r3
 800068e:	46bd      	mov	sp, r7
 8000690:	bd80      	pop	{r7, pc}
 8000692:	46c0      	nop			; (mov r8, r8)
 8000694:	40021000 	.word	0x40021000

08000698 <LL_RCC_PLL_ConfigDomain_SYS>:
  *         @arg @ref LL_RCC_PLL_DIV_3
  *         @arg @ref LL_RCC_PLL_DIV_4
  * @retval None
  */
__STATIC_INLINE void LL_RCC_PLL_ConfigDomain_SYS(uint32_t Source, uint32_t PLLMul, uint32_t PLLDiv)
{
 8000698:	b580      	push	{r7, lr}
 800069a:	b084      	sub	sp, #16
 800069c:	af00      	add	r7, sp, #0
 800069e:	60f8      	str	r0, [r7, #12]
 80006a0:	60b9      	str	r1, [r7, #8]
 80006a2:	607a      	str	r2, [r7, #4]
  MODIFY_REG(RCC->CFGR, RCC_CFGR_PLLSRC | RCC_CFGR_PLLMUL | RCC_CFGR_PLLDIV, Source | PLLMul | PLLDiv);
 80006a4:	4b08      	ldr	r3, [pc, #32]	; (80006c8 <LL_RCC_PLL_ConfigDomain_SYS+0x30>)
 80006a6:	68db      	ldr	r3, [r3, #12]
 80006a8:	4a08      	ldr	r2, [pc, #32]	; (80006cc <LL_RCC_PLL_ConfigDomain_SYS+0x34>)
 80006aa:	4013      	ands	r3, r2
 80006ac:	0019      	movs	r1, r3
 80006ae:	68fa      	ldr	r2, [r7, #12]
 80006b0:	68bb      	ldr	r3, [r7, #8]
 80006b2:	431a      	orrs	r2, r3
 80006b4:	687b      	ldr	r3, [r7, #4]
 80006b6:	431a      	orrs	r2, r3
 80006b8:	4b03      	ldr	r3, [pc, #12]	; (80006c8 <LL_RCC_PLL_ConfigDomain_SYS+0x30>)
 80006ba:	430a      	orrs	r2, r1
 80006bc:	60da      	str	r2, [r3, #12]
}
 80006be:	46c0      	nop			; (mov r8, r8)
 80006c0:	46bd      	mov	sp, r7
 80006c2:	b004      	add	sp, #16
 80006c4:	bd80      	pop	{r7, pc}
 80006c6:	46c0      	nop			; (mov r8, r8)
 80006c8:	40021000 	.word	0x40021000
 80006cc:	ff02ffff 	.word	0xff02ffff

080006d0 <LL_APB1_GRP1_EnableClock>:
  *
  *         (*) value not defined in all devices.
  * @retval None
*/
__STATIC_INLINE void LL_APB1_GRP1_EnableClock(uint32_t Periphs)
{
 80006d0:	b580      	push	{r7, lr}
 80006d2:	b084      	sub	sp, #16
 80006d4:	af00      	add	r7, sp, #0
 80006d6:	6078      	str	r0, [r7, #4]
  __IO uint32_t tmpreg;
  SET_BIT(RCC->APB1ENR, Periphs);
 80006d8:	4b07      	ldr	r3, [pc, #28]	; (80006f8 <LL_APB1_GRP1_EnableClock+0x28>)
 80006da:	6b99      	ldr	r1, [r3, #56]	; 0x38
 80006dc:	4b06      	ldr	r3, [pc, #24]	; (80006f8 <LL_APB1_GRP1_EnableClock+0x28>)
 80006de:	687a      	ldr	r2, [r7, #4]
 80006e0:	430a      	orrs	r2, r1
 80006e2:	639a      	str	r2, [r3, #56]	; 0x38
  /* Delay after an RCC peripheral clock enabling */
  tmpreg = READ_BIT(RCC->APB1ENR, Periphs);
 80006e4:	4b04      	ldr	r3, [pc, #16]	; (80006f8 <LL_APB1_GRP1_EnableClock+0x28>)
 80006e6:	6b9b      	ldr	r3, [r3, #56]	; 0x38
 80006e8:	687a      	ldr	r2, [r7, #4]
 80006ea:	4013      	ands	r3, r2
 80006ec:	60fb      	str	r3, [r7, #12]
  (void)tmpreg;
 80006ee:	68fb      	ldr	r3, [r7, #12]
}
 80006f0:	46c0      	nop			; (mov r8, r8)
 80006f2:	46bd      	mov	sp, r7
 80006f4:	b004      	add	sp, #16
 80006f6:	bd80      	pop	{r7, pc}
 80006f8:	40021000 	.word	0x40021000

080006fc <LL_APB2_GRP1_EnableClock>:
  *
  *         (*) value not defined in all devices.
  * @retval None
*/
__STATIC_INLINE void LL_APB2_GRP1_EnableClock(uint32_t Periphs)
{
 80006fc:	b580      	push	{r7, lr}
 80006fe:	b084      	sub	sp, #16
 8000700:	af00      	add	r7, sp, #0
 8000702:	6078      	str	r0, [r7, #4]
  __IO uint32_t tmpreg;
  SET_BIT(RCC->APB2ENR, Periphs);
 8000704:	4b07      	ldr	r3, [pc, #28]	; (8000724 <LL_APB2_GRP1_EnableClock+0x28>)
 8000706:	6b59      	ldr	r1, [r3, #52]	; 0x34
 8000708:	4b06      	ldr	r3, [pc, #24]	; (8000724 <LL_APB2_GRP1_EnableClock+0x28>)
 800070a:	687a      	ldr	r2, [r7, #4]
 800070c:	430a      	orrs	r2, r1
 800070e:	635a      	str	r2, [r3, #52]	; 0x34
  /* Delay after an RCC peripheral clock enabling */
  tmpreg = READ_BIT(RCC->APB2ENR, Periphs);
 8000710:	4b04      	ldr	r3, [pc, #16]	; (8000724 <LL_APB2_GRP1_EnableClock+0x28>)
 8000712:	6b5b      	ldr	r3, [r3, #52]	; 0x34
 8000714:	687a      	ldr	r2, [r7, #4]
 8000716:	4013      	ands	r3, r2
 8000718:	60fb      	str	r3, [r7, #12]
  (void)tmpreg;
 800071a:	68fb      	ldr	r3, [r7, #12]
}
 800071c:	46c0      	nop			; (mov r8, r8)
 800071e:	46bd      	mov	sp, r7
 8000720:	b004      	add	sp, #16
 8000722:	bd80      	pop	{r7, pc}
 8000724:	40021000 	.word	0x40021000

08000728 <LL_IOP_GRP1_EnableClock>:
  *
  *         (*) value not defined in all devices.
  * @retval None
*/
__STATIC_INLINE void LL_IOP_GRP1_EnableClock(uint32_t Periphs)
{
 8000728:	b580      	push	{r7, lr}
 800072a:	b084      	sub	sp, #16
 800072c:	af00      	add	r7, sp, #0
 800072e:	6078      	str	r0, [r7, #4]
  __IO uint32_t tmpreg;
  SET_BIT(RCC->IOPENR, Periphs);
 8000730:	4b07      	ldr	r3, [pc, #28]	; (8000750 <LL_IOP_GRP1_EnableClock+0x28>)
 8000732:	6ad9      	ldr	r1, [r3, #44]	; 0x2c
 8000734:	4b06      	ldr	r3, [pc, #24]	; (8000750 <LL_IOP_GRP1_EnableClock+0x28>)
 8000736:	687a      	ldr	r2, [r7, #4]
 8000738:	430a      	orrs	r2, r1
 800073a:	62da      	str	r2, [r3, #44]	; 0x2c
  /* Delay after an RCC peripheral clock enabling */
  tmpreg = READ_BIT(RCC->IOPENR, Periphs);
 800073c:	4b04      	ldr	r3, [pc, #16]	; (8000750 <LL_IOP_GRP1_EnableClock+0x28>)
 800073e:	6adb      	ldr	r3, [r3, #44]	; 0x2c
 8000740:	687a      	ldr	r2, [r7, #4]
 8000742:	4013      	ands	r3, r2
 8000744:	60fb      	str	r3, [r7, #12]
  (void)tmpreg;
 8000746:	68fb      	ldr	r3, [r7, #12]
}
 8000748:	46c0      	nop			; (mov r8, r8)
 800074a:	46bd      	mov	sp, r7
 800074c:	b004      	add	sp, #16
 800074e:	bd80      	pop	{r7, pc}
 8000750:	40021000 	.word	0x40021000

08000754 <LL_FLASH_SetLatency>:
  *         @arg @ref LL_FLASH_LATENCY_0
  *         @arg @ref LL_FLASH_LATENCY_1
  * @retval None
  */
__STATIC_INLINE void LL_FLASH_SetLatency(uint32_t Latency)
{
 8000754:	b580      	push	{r7, lr}
 8000756:	b082      	sub	sp, #8
 8000758:	af00      	add	r7, sp, #0
 800075a:	6078      	str	r0, [r7, #4]
  MODIFY_REG(FLASH->ACR, FLASH_ACR_LATENCY, Latency);
 800075c:	4b06      	ldr	r3, [pc, #24]	; (8000778 <LL_FLASH_SetLatency+0x24>)
 800075e:	681b      	ldr	r3, [r3, #0]
 8000760:	2201      	movs	r2, #1
 8000762:	4393      	bics	r3, r2
 8000764:	0019      	movs	r1, r3
 8000766:	4b04      	ldr	r3, [pc, #16]	; (8000778 <LL_FLASH_SetLatency+0x24>)
 8000768:	687a      	ldr	r2, [r7, #4]
 800076a:	430a      	orrs	r2, r1
 800076c:	601a      	str	r2, [r3, #0]
}
 800076e:	46c0      	nop			; (mov r8, r8)
 8000770:	46bd      	mov	sp, r7
 8000772:	b002      	add	sp, #8
 8000774:	bd80      	pop	{r7, pc}
 8000776:	46c0      	nop			; (mov r8, r8)
 8000778:	40022000 	.word	0x40022000

0800077c <LL_FLASH_GetLatency>:
  * @retval Returned value can be one of the following values:
  *         @arg @ref LL_FLASH_LATENCY_0
  *         @arg @ref LL_FLASH_LATENCY_1
  */
__STATIC_INLINE uint32_t LL_FLASH_GetLatency(void)
{
 800077c:	b580      	push	{r7, lr}
 800077e:	af00      	add	r7, sp, #0
  return (uint32_t)(READ_BIT(FLASH->ACR, FLASH_ACR_LATENCY));
 8000780:	4b03      	ldr	r3, [pc, #12]	; (8000790 <LL_FLASH_GetLatency+0x14>)
 8000782:	681b      	ldr	r3, [r3, #0]
 8000784:	2201      	movs	r2, #1
 8000786:	4013      	ands	r3, r2
}
 8000788:	0018      	movs	r0, r3
 800078a:	46bd      	mov	sp, r7
 800078c:	bd80      	pop	{r7, pc}
 800078e:	46c0      	nop			; (mov r8, r8)
 8000790:	40022000 	.word	0x40022000

08000794 <LL_PWR_SetRegulVoltageScaling>:
  *         @arg @ref LL_PWR_REGU_VOLTAGE_SCALE2
  *         @arg @ref LL_PWR_REGU_VOLTAGE_SCALE3
  * @retval None
  */
__STATIC_INLINE void LL_PWR_SetRegulVoltageScaling(uint32_t VoltageScaling)
{
 8000794:	b580      	push	{r7, lr}
 8000796:	b082      	sub	sp, #8
 8000798:	af00      	add	r7, sp, #0
 800079a:	6078      	str	r0, [r7, #4]
  MODIFY_REG(PWR->CR, PWR_CR_VOS, VoltageScaling);
 800079c:	4b06      	ldr	r3, [pc, #24]	; (80007b8 <LL_PWR_SetRegulVoltageScaling+0x24>)
 800079e:	681b      	ldr	r3, [r3, #0]
 80007a0:	4a06      	ldr	r2, [pc, #24]	; (80007bc <LL_PWR_SetRegulVoltageScaling+0x28>)
 80007a2:	4013      	ands	r3, r2
 80007a4:	0019      	movs	r1, r3
 80007a6:	4b04      	ldr	r3, [pc, #16]	; (80007b8 <LL_PWR_SetRegulVoltageScaling+0x24>)
 80007a8:	687a      	ldr	r2, [r7, #4]
 80007aa:	430a      	orrs	r2, r1
 80007ac:	601a      	str	r2, [r3, #0]
}
 80007ae:	46c0      	nop			; (mov r8, r8)
 80007b0:	46bd      	mov	sp, r7
 80007b2:	b002      	add	sp, #8
 80007b4:	bd80      	pop	{r7, pc}
 80007b6:	46c0      	nop			; (mov r8, r8)
 80007b8:	40007000 	.word	0x40007000
 80007bc:	ffffe7ff 	.word	0xffffe7ff

080007c0 <LL_PWR_IsActiveFlag_VOS>:
  * @brief  Indicate whether the regulator is ready in the selected voltage range or if its output voltage is still changing to the required voltage level
  * @rmtoll CSR   VOSF       LL_PWR_IsActiveFlag_VOS
  * @retval State of bit (1 or 0).
  */
__STATIC_INLINE uint32_t LL_PWR_IsActiveFlag_VOS(void)
{
 80007c0:	b580      	push	{r7, lr}
 80007c2:	af00      	add	r7, sp, #0
  return (READ_BIT(PWR->CSR, LL_PWR_CSR_VOS) == (LL_PWR_CSR_VOS));
 80007c4:	4b05      	ldr	r3, [pc, #20]	; (80007dc <LL_PWR_IsActiveFlag_VOS+0x1c>)
 80007c6:	685b      	ldr	r3, [r3, #4]
 80007c8:	2210      	movs	r2, #16
 80007ca:	4013      	ands	r3, r2
 80007cc:	3b10      	subs	r3, #16
 80007ce:	425a      	negs	r2, r3
 80007d0:	4153      	adcs	r3, r2
 80007d2:	b2db      	uxtb	r3, r3
}
 80007d4:	0018      	movs	r0, r3
 80007d6:	46bd      	mov	sp, r7
 80007d8:	bd80      	pop	{r7, pc}
 80007da:	46c0      	nop			; (mov r8, r8)
 80007dc:	40007000 	.word	0x40007000

080007e0 <LL_SPI_SetStandard>:
  *         @arg @ref LL_SPI_PROTOCOL_MOTOROLA
  *         @arg @ref LL_SPI_PROTOCOL_TI
  * @retval None
  */
__STATIC_INLINE void LL_SPI_SetStandard(SPI_TypeDef *SPIx, uint32_t Standard)
{
 80007e0:	b580      	push	{r7, lr}
 80007e2:	b082      	sub	sp, #8
 80007e4:	af00      	add	r7, sp, #0
 80007e6:	6078      	str	r0, [r7, #4]
 80007e8:	6039      	str	r1, [r7, #0]
  MODIFY_REG(SPIx->CR2, SPI_CR2_FRF, Standard);
 80007ea:	687b      	ldr	r3, [r7, #4]
 80007ec:	685b      	ldr	r3, [r3, #4]
 80007ee:	2210      	movs	r2, #16
 80007f0:	4393      	bics	r3, r2
 80007f2:	001a      	movs	r2, r3
 80007f4:	683b      	ldr	r3, [r7, #0]
 80007f6:	431a      	orrs	r2, r3
 80007f8:	687b      	ldr	r3, [r7, #4]
 80007fa:	605a      	str	r2, [r3, #4]
}
 80007fc:	46c0      	nop			; (mov r8, r8)
 80007fe:	46bd      	mov	sp, r7
 8000800:	b002      	add	sp, #8
 8000802:	bd80      	pop	{r7, pc}

08000804 <LL_TIM_DisableARRPreload>:
{
 8000804:	b580      	push	{r7, lr}
 8000806:	b082      	sub	sp, #8
 8000808:	af00      	add	r7, sp, #0
 800080a:	6078      	str	r0, [r7, #4]
  CLEAR_BIT(TIMx->CR1, TIM_CR1_ARPE);
 800080c:	687b      	ldr	r3, [r7, #4]
 800080e:	681b      	ldr	r3, [r3, #0]
 8000810:	2280      	movs	r2, #128	; 0x80
 8000812:	4393      	bics	r3, r2
 8000814:	001a      	movs	r2, r3
 8000816:	687b      	ldr	r3, [r7, #4]
 8000818:	601a      	str	r2, [r3, #0]
}
 800081a:	46c0      	nop			; (mov r8, r8)
 800081c:	46bd      	mov	sp, r7
 800081e:	b002      	add	sp, #8
 8000820:	bd80      	pop	{r7, pc}
	...

08000824 <LL_TIM_OC_DisableFast>:
{
 8000824:	b580      	push	{r7, lr}
 8000826:	b084      	sub	sp, #16
 8000828:	af00      	add	r7, sp, #0
 800082a:	6078      	str	r0, [r7, #4]
 800082c:	6039      	str	r1, [r7, #0]
  uint8_t iChannel = TIM_GET_CHANNEL_INDEX(Channel);
 800082e:	683b      	ldr	r3, [r7, #0]
 8000830:	2b01      	cmp	r3, #1
 8000832:	d00d      	beq.n	8000850 <LL_TIM_OC_DisableFast+0x2c>
 8000834:	683b      	ldr	r3, [r7, #0]
 8000836:	2b10      	cmp	r3, #16
 8000838:	d008      	beq.n	800084c <LL_TIM_OC_DisableFast+0x28>
 800083a:	683a      	ldr	r2, [r7, #0]
 800083c:	2380      	movs	r3, #128	; 0x80
 800083e:	005b      	lsls	r3, r3, #1
 8000840:	429a      	cmp	r2, r3
 8000842:	d101      	bne.n	8000848 <LL_TIM_OC_DisableFast+0x24>
 8000844:	2304      	movs	r3, #4
 8000846:	e004      	b.n	8000852 <LL_TIM_OC_DisableFast+0x2e>
 8000848:	2306      	movs	r3, #6
 800084a:	e002      	b.n	8000852 <LL_TIM_OC_DisableFast+0x2e>
 800084c:	2302      	movs	r3, #2
 800084e:	e000      	b.n	8000852 <LL_TIM_OC_DisableFast+0x2e>
 8000850:	2300      	movs	r3, #0
 8000852:	200f      	movs	r0, #15
 8000854:	183a      	adds	r2, r7, r0
 8000856:	7013      	strb	r3, [r2, #0]
  __IO uint32_t *pReg = (__IO uint32_t *)((uint32_t)((uint32_t)(&TIMx->CCMR1) + OFFSET_TAB_CCMRx[iChannel]));
 8000858:	687b      	ldr	r3, [r7, #4]
 800085a:	3318      	adds	r3, #24
 800085c:	0019      	movs	r1, r3
 800085e:	183b      	adds	r3, r7, r0
 8000860:	781b      	ldrb	r3, [r3, #0]
 8000862:	4a0a      	ldr	r2, [pc, #40]	; (800088c <LL_TIM_OC_DisableFast+0x68>)
 8000864:	5cd3      	ldrb	r3, [r2, r3]
 8000866:	18cb      	adds	r3, r1, r3
 8000868:	60bb      	str	r3, [r7, #8]
  CLEAR_BIT(*pReg, (TIM_CCMR1_OC1FE << SHIFT_TAB_OCxx[iChannel]));
 800086a:	68bb      	ldr	r3, [r7, #8]
 800086c:	681b      	ldr	r3, [r3, #0]
 800086e:	183a      	adds	r2, r7, r0
 8000870:	7812      	ldrb	r2, [r2, #0]
 8000872:	4907      	ldr	r1, [pc, #28]	; (8000890 <LL_TIM_OC_DisableFast+0x6c>)
 8000874:	5c8a      	ldrb	r2, [r1, r2]
 8000876:	0011      	movs	r1, r2
 8000878:	2204      	movs	r2, #4
 800087a:	408a      	lsls	r2, r1
 800087c:	43d2      	mvns	r2, r2
 800087e:	401a      	ands	r2, r3
 8000880:	68bb      	ldr	r3, [r7, #8]
 8000882:	601a      	str	r2, [r3, #0]
}
 8000884:	46c0      	nop			; (mov r8, r8)
 8000886:	46bd      	mov	sp, r7
 8000888:	b004      	add	sp, #16
 800088a:	bd80      	pop	{r7, pc}
 800088c:	08001ea0 	.word	0x08001ea0
 8000890:	08001ea8 	.word	0x08001ea8

08000894 <LL_TIM_OC_EnablePreload>:
{
 8000894:	b580      	push	{r7, lr}
 8000896:	b084      	sub	sp, #16
 8000898:	af00      	add	r7, sp, #0
 800089a:	6078      	str	r0, [r7, #4]
 800089c:	6039      	str	r1, [r7, #0]
  uint8_t iChannel = TIM_GET_CHANNEL_INDEX(Channel);
 800089e:	683b      	ldr	r3, [r7, #0]
 80008a0:	2b01      	cmp	r3, #1
 80008a2:	d00d      	beq.n	80008c0 <LL_TIM_OC_EnablePreload+0x2c>
 80008a4:	683b      	ldr	r3, [r7, #0]
 80008a6:	2b10      	cmp	r3, #16
 80008a8:	d008      	beq.n	80008bc <LL_TIM_OC_EnablePreload+0x28>
 80008aa:	683a      	ldr	r2, [r7, #0]
 80008ac:	2380      	movs	r3, #128	; 0x80
 80008ae:	005b      	lsls	r3, r3, #1
 80008b0:	429a      	cmp	r2, r3
 80008b2:	d101      	bne.n	80008b8 <LL_TIM_OC_EnablePreload+0x24>
 80008b4:	2304      	movs	r3, #4
 80008b6:	e004      	b.n	80008c2 <LL_TIM_OC_EnablePreload+0x2e>
 80008b8:	2306      	movs	r3, #6
 80008ba:	e002      	b.n	80008c2 <LL_TIM_OC_EnablePreload+0x2e>
 80008bc:	2302      	movs	r3, #2
 80008be:	e000      	b.n	80008c2 <LL_TIM_OC_EnablePreload+0x2e>
 80008c0:	2300      	movs	r3, #0
 80008c2:	200f      	movs	r0, #15
 80008c4:	183a      	adds	r2, r7, r0
 80008c6:	7013      	strb	r3, [r2, #0]
  __IO uint32_t *pReg = (__IO uint32_t *)((uint32_t)((uint32_t)(&TIMx->CCMR1) + OFFSET_TAB_CCMRx[iChannel]));
 80008c8:	687b      	ldr	r3, [r7, #4]
 80008ca:	3318      	adds	r3, #24
 80008cc:	0019      	movs	r1, r3
 80008ce:	183b      	adds	r3, r7, r0
 80008d0:	781b      	ldrb	r3, [r3, #0]
 80008d2:	4a0a      	ldr	r2, [pc, #40]	; (80008fc <LL_TIM_OC_EnablePreload+0x68>)
 80008d4:	5cd3      	ldrb	r3, [r2, r3]
 80008d6:	18cb      	adds	r3, r1, r3
 80008d8:	60bb      	str	r3, [r7, #8]
  SET_BIT(*pReg, (TIM_CCMR1_OC1PE << SHIFT_TAB_OCxx[iChannel]));
 80008da:	68bb      	ldr	r3, [r7, #8]
 80008dc:	681a      	ldr	r2, [r3, #0]
 80008de:	183b      	adds	r3, r7, r0
 80008e0:	781b      	ldrb	r3, [r3, #0]
 80008e2:	4907      	ldr	r1, [pc, #28]	; (8000900 <LL_TIM_OC_EnablePreload+0x6c>)
 80008e4:	5ccb      	ldrb	r3, [r1, r3]
 80008e6:	0019      	movs	r1, r3
 80008e8:	2308      	movs	r3, #8
 80008ea:	408b      	lsls	r3, r1
 80008ec:	431a      	orrs	r2, r3
 80008ee:	68bb      	ldr	r3, [r7, #8]
 80008f0:	601a      	str	r2, [r3, #0]
}
 80008f2:	46c0      	nop			; (mov r8, r8)
 80008f4:	46bd      	mov	sp, r7
 80008f6:	b004      	add	sp, #16
 80008f8:	bd80      	pop	{r7, pc}
 80008fa:	46c0      	nop			; (mov r8, r8)
 80008fc:	08001ea0 	.word	0x08001ea0
 8000900:	08001ea8 	.word	0x08001ea8

08000904 <LL_TIM_SetClockSource>:
  *         @arg @ref LL_TIM_CLOCKSOURCE_EXT_MODE1
  *         @arg @ref LL_TIM_CLOCKSOURCE_EXT_MODE2
  * @retval None
  */
__STATIC_INLINE void LL_TIM_SetClockSource(TIM_TypeDef *TIMx, uint32_t ClockSource)
{
 8000904:	b580      	push	{r7, lr}
 8000906:	b082      	sub	sp, #8
 8000908:	af00      	add	r7, sp, #0
 800090a:	6078      	str	r0, [r7, #4]
 800090c:	6039      	str	r1, [r7, #0]
  MODIFY_REG(TIMx->SMCR, TIM_SMCR_SMS | TIM_SMCR_ECE, ClockSource);
 800090e:	687b      	ldr	r3, [r7, #4]
 8000910:	689b      	ldr	r3, [r3, #8]
 8000912:	4a05      	ldr	r2, [pc, #20]	; (8000928 <LL_TIM_SetClockSource+0x24>)
 8000914:	401a      	ands	r2, r3
 8000916:	683b      	ldr	r3, [r7, #0]
 8000918:	431a      	orrs	r2, r3
 800091a:	687b      	ldr	r3, [r7, #4]
 800091c:	609a      	str	r2, [r3, #8]
}
 800091e:	46c0      	nop			; (mov r8, r8)
 8000920:	46bd      	mov	sp, r7
 8000922:	b002      	add	sp, #8
 8000924:	bd80      	pop	{r7, pc}
 8000926:	46c0      	nop			; (mov r8, r8)
 8000928:	ffffbff8 	.word	0xffffbff8

0800092c <LL_TIM_SetTriggerOutput>:
  *         @arg @ref LL_TIM_TRGO_OC3REF
  *         @arg @ref LL_TIM_TRGO_OC4REF
  * @retval None
  */
__STATIC_INLINE void LL_TIM_SetTriggerOutput(TIM_TypeDef *TIMx, uint32_t TimerSynchronization)
{
 800092c:	b580      	push	{r7, lr}
 800092e:	b082      	sub	sp, #8
 8000930:	af00      	add	r7, sp, #0
 8000932:	6078      	str	r0, [r7, #4]
 8000934:	6039      	str	r1, [r7, #0]
  MODIFY_REG(TIMx->CR2, TIM_CR2_MMS, TimerSynchronization);
 8000936:	687b      	ldr	r3, [r7, #4]
 8000938:	685b      	ldr	r3, [r3, #4]
 800093a:	2270      	movs	r2, #112	; 0x70
 800093c:	4393      	bics	r3, r2
 800093e:	001a      	movs	r2, r3
 8000940:	683b      	ldr	r3, [r7, #0]
 8000942:	431a      	orrs	r2, r3
 8000944:	687b      	ldr	r3, [r7, #4]
 8000946:	605a      	str	r2, [r3, #4]
}
 8000948:	46c0      	nop			; (mov r8, r8)
 800094a:	46bd      	mov	sp, r7
 800094c:	b002      	add	sp, #8
 800094e:	bd80      	pop	{r7, pc}

08000950 <LL_TIM_DisableMasterSlaveMode>:
  * @rmtoll SMCR         MSM           LL_TIM_DisableMasterSlaveMode
  * @param  TIMx Timer instance
  * @retval None
  */
__STATIC_INLINE void LL_TIM_DisableMasterSlaveMode(TIM_TypeDef *TIMx)
{
 8000950:	b580      	push	{r7, lr}
 8000952:	b082      	sub	sp, #8
 8000954:	af00      	add	r7, sp, #0
 8000956:	6078      	str	r0, [r7, #4]
  CLEAR_BIT(TIMx->SMCR, TIM_SMCR_MSM);
 8000958:	687b      	ldr	r3, [r7, #4]
 800095a:	689b      	ldr	r3, [r3, #8]
 800095c:	2280      	movs	r2, #128	; 0x80
 800095e:	4393      	bics	r3, r2
 8000960:	001a      	movs	r2, r3
 8000962:	687b      	ldr	r3, [r7, #4]
 8000964:	609a      	str	r2, [r3, #8]
}
 8000966:	46c0      	nop			; (mov r8, r8)
 8000968:	46bd      	mov	sp, r7
 800096a:	b002      	add	sp, #8
 800096c:	bd80      	pop	{r7, pc}

0800096e <LL_USART_Enable>:
  * @rmtoll CR1          UE            LL_USART_Enable
  * @param  USARTx USART Instance
  * @retval None
  */
__STATIC_INLINE void LL_USART_Enable(USART_TypeDef *USARTx)
{
 800096e:	b580      	push	{r7, lr}
 8000970:	b082      	sub	sp, #8
 8000972:	af00      	add	r7, sp, #0
 8000974:	6078      	str	r0, [r7, #4]
  SET_BIT(USARTx->CR1, USART_CR1_UE);
 8000976:	687b      	ldr	r3, [r7, #4]
 8000978:	681b      	ldr	r3, [r3, #0]
 800097a:	2201      	movs	r2, #1
 800097c:	431a      	orrs	r2, r3
 800097e:	687b      	ldr	r3, [r7, #4]
 8000980:	601a      	str	r2, [r3, #0]
}
 8000982:	46c0      	nop			; (mov r8, r8)
 8000984:	46bd      	mov	sp, r7
 8000986:	b002      	add	sp, #8
 8000988:	bd80      	pop	{r7, pc}
	...

0800098c <LL_USART_ConfigAsyncMode>:
  *         CR3          HDSEL         LL_USART_ConfigAsyncMode
  * @param  USARTx USART Instance
  * @retval None
  */
__STATIC_INLINE void LL_USART_ConfigAsyncMode(USART_TypeDef *USARTx)
{
 800098c:	b580      	push	{r7, lr}
 800098e:	b082      	sub	sp, #8
 8000990:	af00      	add	r7, sp, #0
 8000992:	6078      	str	r0, [r7, #4]
  /* In Asynchronous mode, the following bits must be kept cleared:
  - LINEN, CLKEN bits in the USART_CR2 register,
  - SCEN, IREN and HDSEL bits in the USART_CR3 register.
  */
  CLEAR_BIT(USARTx->CR2, (USART_CR2_LINEN | USART_CR2_CLKEN));
 8000994:	687b      	ldr	r3, [r7, #4]
 8000996:	685b      	ldr	r3, [r3, #4]
 8000998:	4a07      	ldr	r2, [pc, #28]	; (80009b8 <LL_USART_ConfigAsyncMode+0x2c>)
 800099a:	401a      	ands	r2, r3
 800099c:	687b      	ldr	r3, [r7, #4]
 800099e:	605a      	str	r2, [r3, #4]
  CLEAR_BIT(USARTx->CR3, (USART_CR3_SCEN | USART_CR3_IREN | USART_CR3_HDSEL));
 80009a0:	687b      	ldr	r3, [r7, #4]
 80009a2:	689b      	ldr	r3, [r3, #8]
 80009a4:	222a      	movs	r2, #42	; 0x2a
 80009a6:	4393      	bics	r3, r2
 80009a8:	001a      	movs	r2, r3
 80009aa:	687b      	ldr	r3, [r7, #4]
 80009ac:	609a      	str	r2, [r3, #8]
}
 80009ae:	46c0      	nop			; (mov r8, r8)
 80009b0:	46bd      	mov	sp, r7
 80009b2:	b002      	add	sp, #8
 80009b4:	bd80      	pop	{r7, pc}
 80009b6:	46c0      	nop			; (mov r8, r8)
 80009b8:	ffffb7ff 	.word	0xffffb7ff

080009bc <LL_GPIO_ResetOutputPin>:
  *         @arg @ref LL_GPIO_PIN_15
  *         @arg @ref LL_GPIO_PIN_ALL
  * @retval None
  */
__STATIC_INLINE void LL_GPIO_ResetOutputPin(GPIO_TypeDef *GPIOx, uint32_t PinMask)
{
 80009bc:	b580      	push	{r7, lr}
 80009be:	b082      	sub	sp, #8
 80009c0:	af00      	add	r7, sp, #0
 80009c2:	6078      	str	r0, [r7, #4]
 80009c4:	6039      	str	r1, [r7, #0]
  WRITE_REG(GPIOx->BRR, PinMask);
 80009c6:	687b      	ldr	r3, [r7, #4]
 80009c8:	683a      	ldr	r2, [r7, #0]
 80009ca:	629a      	str	r2, [r3, #40]	; 0x28
}
 80009cc:	46c0      	nop			; (mov r8, r8)
 80009ce:	46bd      	mov	sp, r7
 80009d0:	b002      	add	sp, #8
 80009d2:	bd80      	pop	{r7, pc}

080009d4 <main>:
/**
  * @brief  The application entry point.
  * @retval int
  */
int main(void)
{
 80009d4:	b580      	push	{r7, lr}
 80009d6:	af00      	add	r7, sp, #0
  /* USER CODE END 1 */

  /* MCU Configuration--------------------------------------------------------*/

  /* Reset of all peripherals, Initializes the Flash interface and the Systick. */
  LL_APB2_GRP1_EnableClock(LL_APB2_GRP1_PERIPH_SYSCFG);
 80009d8:	2001      	movs	r0, #1
 80009da:	f7ff fe8f 	bl	80006fc <LL_APB2_GRP1_EnableClock>
  LL_APB1_GRP1_EnableClock(LL_APB1_GRP1_PERIPH_PWR);
 80009de:	2380      	movs	r3, #128	; 0x80
 80009e0:	055b      	lsls	r3, r3, #21
 80009e2:	0018      	movs	r0, r3
 80009e4:	f7ff fe74 	bl	80006d0 <LL_APB1_GRP1_EnableClock>

  /* SysTick_IRQn interrupt configuration */
  NVIC_SetPriority(SysTick_IRQn, 3);
 80009e8:	2301      	movs	r3, #1
 80009ea:	425b      	negs	r3, r3
 80009ec:	2103      	movs	r1, #3
 80009ee:	0018      	movs	r0, r3
 80009f0:	f7ff fc88 	bl	8000304 <__NVIC_SetPriority>
  /* USER CODE BEGIN Init */

  /* USER CODE END Init */

  /* Configure the system clock */
  SystemClock_Config();
 80009f4:	f000 f812 	bl	8000a1c <SystemClock_Config>
  /* USER CODE BEGIN SysInit */

  /* USER CODE END SysInit */

  /* Initialize all configured peripherals */
  MX_GPIO_Init();
 80009f8:	f000 fa8e 	bl	8000f18 <MX_GPIO_Init>
  MX_USART2_UART_Init();
 80009fc:	f000 fa14 	bl	8000e28 <MX_USART2_UART_Init>
  MX_ADC_Init();
 8000a00:	f000 f862 	bl	8000ac8 <MX_ADC_Init>
  MX_SPI1_Init();
 8000a04:	f000 f90a 	bl	8000c1c <MX_SPI1_Init>
  MX_TIM2_Init();
 8000a08:	f000 f986 	bl	8000d18 <MX_TIM2_Init>
  /* USER CODE BEGIN 2 */
LedStart();
 8000a0c:	f7ff fc31 	bl	8000272 <LedStart>
  /* Infinite loop */
  /* USER CODE BEGIN WHILE */
  while (1)
  {
    /* USER CODE END WHILE */
		LedPulse();
 8000a10:	f7ff fc52 	bl	80002b8 <LedPulse>
		LL_mDelay(1);
 8000a14:	2001      	movs	r0, #1
 8000a16:	f001 f9db 	bl	8001dd0 <LL_mDelay>
		LedPulse();
 8000a1a:	e7f9      	b.n	8000a10 <main+0x3c>

08000a1c <SystemClock_Config>:
/**
  * @brief System Clock Configuration
  * @retval None
  */
void SystemClock_Config(void)
{
 8000a1c:	b580      	push	{r7, lr}
 8000a1e:	af00      	add	r7, sp, #0
  LL_FLASH_SetLatency(LL_FLASH_LATENCY_1);
 8000a20:	2001      	movs	r0, #1
 8000a22:	f7ff fe97 	bl	8000754 <LL_FLASH_SetLatency>
  while(LL_FLASH_GetLatency()!= LL_FLASH_LATENCY_1)
 8000a26:	46c0      	nop			; (mov r8, r8)
 8000a28:	f7ff fea8 	bl	800077c <LL_FLASH_GetLatency>
 8000a2c:	0003      	movs	r3, r0
 8000a2e:	2b01      	cmp	r3, #1
 8000a30:	d1fa      	bne.n	8000a28 <SystemClock_Config+0xc>
  {
  }
  LL_PWR_SetRegulVoltageScaling(LL_PWR_REGU_VOLTAGE_SCALE1);
 8000a32:	2380      	movs	r3, #128	; 0x80
 8000a34:	011b      	lsls	r3, r3, #4
 8000a36:	0018      	movs	r0, r3
 8000a38:	f7ff feac 	bl	8000794 <LL_PWR_SetRegulVoltageScaling>
  while (LL_PWR_IsActiveFlag_VOS() != 0)
 8000a3c:	46c0      	nop			; (mov r8, r8)
 8000a3e:	f7ff febf 	bl	80007c0 <LL_PWR_IsActiveFlag_VOS>
 8000a42:	1e03      	subs	r3, r0, #0
 8000a44:	d1fb      	bne.n	8000a3e <SystemClock_Config+0x22>
  {
  }
  LL_RCC_HSI_Enable();
 8000a46:	f7ff fd59 	bl	80004fc <LL_RCC_HSI_Enable>

   /* Wait till HSI is ready */
  while(LL_RCC_HSI_IsReady() != 1)
 8000a4a:	46c0      	nop			; (mov r8, r8)
 8000a4c:	f7ff fd64 	bl	8000518 <LL_RCC_HSI_IsReady>
 8000a50:	0003      	movs	r3, r0
 8000a52:	2b01      	cmp	r3, #1
 8000a54:	d1fa      	bne.n	8000a4c <SystemClock_Config+0x30>
  {

  }
  LL_RCC_HSI_SetCalibTrimming(16);
 8000a56:	2010      	movs	r0, #16
 8000a58:	f7ff fd6e 	bl	8000538 <LL_RCC_HSI_SetCalibTrimming>
  LL_RCC_PLL_ConfigDomain_SYS(LL_RCC_PLLSOURCE_HSI, LL_RCC_PLL_MUL_4, LL_RCC_PLL_DIV_2);
 8000a5c:	2380      	movs	r3, #128	; 0x80
 8000a5e:	03da      	lsls	r2, r3, #15
 8000a60:	2380      	movs	r3, #128	; 0x80
 8000a62:	02db      	lsls	r3, r3, #11
 8000a64:	0019      	movs	r1, r3
 8000a66:	2000      	movs	r0, #0
 8000a68:	f7ff fe16 	bl	8000698 <LL_RCC_PLL_ConfigDomain_SYS>
  LL_RCC_PLL_Enable();
 8000a6c:	f7ff fdf2 	bl	8000654 <LL_RCC_PLL_Enable>

   /* Wait till PLL is ready */
  while(LL_RCC_PLL_IsReady() != 1)
 8000a70:	46c0      	nop			; (mov r8, r8)
 8000a72:	f7ff fdfd 	bl	8000670 <LL_RCC_PLL_IsReady>
 8000a76:	0003      	movs	r3, r0
 8000a78:	2b01      	cmp	r3, #1
 8000a7a:	d1fa      	bne.n	8000a72 <SystemClock_Config+0x56>
  {

  }
  LL_RCC_SetAHBPrescaler(LL_RCC_SYSCLK_DIV_1);
 8000a7c:	2000      	movs	r0, #0
 8000a7e:	f7ff fd91 	bl	80005a4 <LL_RCC_SetAHBPrescaler>
  LL_RCC_SetAPB1Prescaler(LL_RCC_APB1_DIV_1);
 8000a82:	2000      	movs	r0, #0
 8000a84:	f7ff fda2 	bl	80005cc <LL_RCC_SetAPB1Prescaler>
  LL_RCC_SetAPB2Prescaler(LL_RCC_APB2_DIV_1);
 8000a88:	2000      	movs	r0, #0
 8000a8a:	f7ff fdb5 	bl	80005f8 <LL_RCC_SetAPB2Prescaler>
  LL_RCC_SetSysClkSource(LL_RCC_SYS_CLKSOURCE_PLL);
 8000a8e:	2003      	movs	r0, #3
 8000a90:	f7ff fd68 	bl	8000564 <LL_RCC_SetSysClkSource>

   /* Wait till System clock is ready */
  while(LL_RCC_GetSysClkSource() != LL_RCC_SYS_CLKSOURCE_STATUS_PLL)
 8000a94:	46c0      	nop			; (mov r8, r8)
 8000a96:	f7ff fd79 	bl	800058c <LL_RCC_GetSysClkSource>
 8000a9a:	0003      	movs	r3, r0
 8000a9c:	2b0c      	cmp	r3, #12
 8000a9e:	d1fa      	bne.n	8000a96 <SystemClock_Config+0x7a>
  {

  }

  LL_Init1msTick(32000000);
 8000aa0:	4b07      	ldr	r3, [pc, #28]	; (8000ac0 <SystemClock_Config+0xa4>)
 8000aa2:	0018      	movs	r0, r3
 8000aa4:	f001 f984 	bl	8001db0 <LL_Init1msTick>

  LL_SetSystemCoreClock(32000000);
 8000aa8:	4b05      	ldr	r3, [pc, #20]	; (8000ac0 <SystemClock_Config+0xa4>)
 8000aaa:	0018      	movs	r0, r3
 8000aac:	f001 f9b2 	bl	8001e14 <LL_SetSystemCoreClock>
  LL_RCC_SetUSARTClockSource(LL_RCC_USART2_CLKSOURCE_SYSCLK);
 8000ab0:	4b04      	ldr	r3, [pc, #16]	; (8000ac4 <SystemClock_Config+0xa8>)
 8000ab2:	0018      	movs	r0, r3
 8000ab4:	f7ff fdb6 	bl	8000624 <LL_RCC_SetUSARTClockSource>
}
 8000ab8:	46c0      	nop			; (mov r8, r8)
 8000aba:	46bd      	mov	sp, r7
 8000abc:	bd80      	pop	{r7, pc}
 8000abe:	46c0      	nop			; (mov r8, r8)
 8000ac0:	01e84800 	.word	0x01e84800
 8000ac4:	000c0004 	.word	0x000c0004

08000ac8 <MX_ADC_Init>:
  * @brief ADC Initialization Function
  * @param None
  * @retval None
  */
static void MX_ADC_Init(void)
{
 8000ac8:	b5b0      	push	{r4, r5, r7, lr}
 8000aca:	b090      	sub	sp, #64	; 0x40
 8000acc:	af00      	add	r7, sp, #0

  /* USER CODE BEGIN ADC_Init 0 */

  /* USER CODE END ADC_Init 0 */

  LL_ADC_REG_InitTypeDef ADC_REG_InitStruct = {0};
 8000ace:	2428      	movs	r4, #40	; 0x28
 8000ad0:	193b      	adds	r3, r7, r4
 8000ad2:	0018      	movs	r0, r3
 8000ad4:	2314      	movs	r3, #20
 8000ad6:	001a      	movs	r2, r3
 8000ad8:	2100      	movs	r1, #0
 8000ada:	f001 f9a9 	bl	8001e30 <memset>
  LL_ADC_InitTypeDef ADC_InitStruct = {0};
 8000ade:	2518      	movs	r5, #24
 8000ae0:	197b      	adds	r3, r7, r5
 8000ae2:	0018      	movs	r0, r3
 8000ae4:	2310      	movs	r3, #16
 8000ae6:	001a      	movs	r2, r3
 8000ae8:	2100      	movs	r1, #0
 8000aea:	f001 f9a1 	bl	8001e30 <memset>

  LL_GPIO_InitTypeDef GPIO_InitStruct = {0};
 8000aee:	003b      	movs	r3, r7
 8000af0:	0018      	movs	r0, r3
 8000af2:	2318      	movs	r3, #24
 8000af4:	001a      	movs	r2, r3
 8000af6:	2100      	movs	r1, #0
 8000af8:	f001 f99a 	bl	8001e30 <memset>

  /* Peripheral clock enable */
  LL_APB2_GRP1_EnableClock(LL_APB2_GRP1_PERIPH_ADC1);
 8000afc:	2380      	movs	r3, #128	; 0x80
 8000afe:	009b      	lsls	r3, r3, #2
 8000b00:	0018      	movs	r0, r3
 8000b02:	f7ff fdfb 	bl	80006fc <LL_APB2_GRP1_EnableClock>

  LL_IOP_GRP1_EnableClock(LL_IOP_GRP1_PERIPH_GPIOA);
 8000b06:	2001      	movs	r0, #1
 8000b08:	f7ff fe0e 	bl	8000728 <LL_IOP_GRP1_EnableClock>
  /**ADC GPIO Configuration
  PA1   ------> ADC_IN1
  */
  GPIO_InitStruct.Pin = LL_GPIO_PIN_1;
 8000b0c:	003b      	movs	r3, r7
 8000b0e:	2202      	movs	r2, #2
 8000b10:	601a      	str	r2, [r3, #0]
  GPIO_InitStruct.Mode = LL_GPIO_MODE_ANALOG;
 8000b12:	003b      	movs	r3, r7
 8000b14:	2203      	movs	r2, #3
 8000b16:	605a      	str	r2, [r3, #4]
  GPIO_InitStruct.Pull = LL_GPIO_PULL_NO;
 8000b18:	003b      	movs	r3, r7
 8000b1a:	2200      	movs	r2, #0
 8000b1c:	611a      	str	r2, [r3, #16]
  LL_GPIO_Init(GPIOA, &GPIO_InitStruct);
 8000b1e:	003a      	movs	r2, r7
 8000b20:	23a0      	movs	r3, #160	; 0xa0
 8000b22:	05db      	lsls	r3, r3, #23
 8000b24:	0011      	movs	r1, r2
 8000b26:	0018      	movs	r0, r3
 8000b28:	f000 fbcd 	bl	80012c6 <LL_GPIO_Init>

  /* USER CODE END ADC_Init 1 */

  /** Configure Regular Channel
  */
  LL_ADC_REG_SetSequencerChAdd(ADC1, LL_ADC_CHANNEL_1);
 8000b2c:	4a36      	ldr	r2, [pc, #216]	; (8000c08 <MX_ADC_Init+0x140>)
 8000b2e:	4b37      	ldr	r3, [pc, #220]	; (8000c0c <MX_ADC_Init+0x144>)
 8000b30:	0011      	movs	r1, r2
 8000b32:	0018      	movs	r0, r3
 8000b34:	f7ff fc8c 	bl	8000450 <LL_ADC_REG_SetSequencerChAdd>

  /** Common config
  */
  ADC_REG_InitStruct.TriggerSource = LL_ADC_REG_TRIG_SOFTWARE;
 8000b38:	0021      	movs	r1, r4
 8000b3a:	187b      	adds	r3, r7, r1
 8000b3c:	2200      	movs	r2, #0
 8000b3e:	601a      	str	r2, [r3, #0]
  ADC_REG_InitStruct.SequencerDiscont = LL_ADC_REG_SEQ_DISCONT_DISABLE;
 8000b40:	187b      	adds	r3, r7, r1
 8000b42:	2200      	movs	r2, #0
 8000b44:	605a      	str	r2, [r3, #4]
  ADC_REG_InitStruct.ContinuousMode = LL_ADC_REG_CONV_SINGLE;
 8000b46:	187b      	adds	r3, r7, r1
 8000b48:	2200      	movs	r2, #0
 8000b4a:	609a      	str	r2, [r3, #8]
  ADC_REG_InitStruct.DMATransfer = LL_ADC_REG_DMA_TRANSFER_NONE;
 8000b4c:	187b      	adds	r3, r7, r1
 8000b4e:	2200      	movs	r2, #0
 8000b50:	60da      	str	r2, [r3, #12]
  ADC_REG_InitStruct.Overrun = LL_ADC_REG_OVR_DATA_PRESERVED;
 8000b52:	187b      	adds	r3, r7, r1
 8000b54:	2200      	movs	r2, #0
 8000b56:	611a      	str	r2, [r3, #16]
  LL_ADC_REG_Init(ADC1, &ADC_REG_InitStruct);
 8000b58:	187b      	adds	r3, r7, r1
 8000b5a:	4a2c      	ldr	r2, [pc, #176]	; (8000c0c <MX_ADC_Init+0x144>)
 8000b5c:	0019      	movs	r1, r3
 8000b5e:	0010      	movs	r0, r2
 8000b60:	f000 fac6 	bl	80010f0 <LL_ADC_REG_Init>
  LL_ADC_SetSamplingTimeCommonChannels(ADC1, LL_ADC_SAMPLINGTIME_1CYCLE_5);
 8000b64:	4b29      	ldr	r3, [pc, #164]	; (8000c0c <MX_ADC_Init+0x144>)
 8000b66:	2100      	movs	r1, #0
 8000b68:	0018      	movs	r0, r3
 8000b6a:	f7ff fc4d 	bl	8000408 <LL_ADC_SetSamplingTimeCommonChannels>
  LL_ADC_SetOverSamplingScope(ADC1, LL_ADC_OVS_DISABLE);
 8000b6e:	4b27      	ldr	r3, [pc, #156]	; (8000c0c <MX_ADC_Init+0x144>)
 8000b70:	2100      	movs	r1, #0
 8000b72:	0018      	movs	r0, r3
 8000b74:	f7ff fc7d 	bl	8000472 <LL_ADC_SetOverSamplingScope>
  LL_ADC_REG_SetSequencerScanDirection(ADC1, LL_ADC_REG_SEQ_SCAN_DIR_FORWARD);
 8000b78:	4b24      	ldr	r3, [pc, #144]	; (8000c0c <MX_ADC_Init+0x144>)
 8000b7a:	2100      	movs	r1, #0
 8000b7c:	0018      	movs	r0, r3
 8000b7e:	f7ff fc55 	bl	800042c <LL_ADC_REG_SetSequencerScanDirection>
  LL_ADC_SetCommonFrequencyMode(__LL_ADC_COMMON_INSTANCE(ADC1), LL_ADC_CLOCK_FREQ_MODE_HIGH);
 8000b82:	4b23      	ldr	r3, [pc, #140]	; (8000c10 <MX_ADC_Init+0x148>)
 8000b84:	2100      	movs	r1, #0
 8000b86:	0018      	movs	r0, r3
 8000b88:	f7ff fc2a 	bl	80003e0 <LL_ADC_SetCommonFrequencyMode>
  LL_ADC_DisableIT_EOC(ADC1);
 8000b8c:	4b1f      	ldr	r3, [pc, #124]	; (8000c0c <MX_ADC_Init+0x144>)
 8000b8e:	0018      	movs	r0, r3
 8000b90:	f7ff fc96 	bl	80004c0 <LL_ADC_DisableIT_EOC>
  LL_ADC_DisableIT_EOS(ADC1);
 8000b94:	4b1d      	ldr	r3, [pc, #116]	; (8000c0c <MX_ADC_Init+0x144>)
 8000b96:	0018      	movs	r0, r3
 8000b98:	f7ff fca1 	bl	80004de <LL_ADC_DisableIT_EOS>
  ADC_InitStruct.Clock = LL_ADC_CLOCK_SYNC_PCLK_DIV2;
 8000b9c:	197b      	adds	r3, r7, r5
 8000b9e:	2280      	movs	r2, #128	; 0x80
 8000ba0:	05d2      	lsls	r2, r2, #23
 8000ba2:	601a      	str	r2, [r3, #0]
  ADC_InitStruct.Resolution = LL_ADC_RESOLUTION_12B;
 8000ba4:	197b      	adds	r3, r7, r5
 8000ba6:	2200      	movs	r2, #0
 8000ba8:	605a      	str	r2, [r3, #4]
  ADC_InitStruct.DataAlignment = LL_ADC_DATA_ALIGN_RIGHT;
 8000baa:	197b      	adds	r3, r7, r5
 8000bac:	2200      	movs	r2, #0
 8000bae:	609a      	str	r2, [r3, #8]
  ADC_InitStruct.LowPowerMode = LL_ADC_LP_MODE_NONE;
 8000bb0:	197b      	adds	r3, r7, r5
 8000bb2:	2200      	movs	r2, #0
 8000bb4:	60da      	str	r2, [r3, #12]
  LL_ADC_Init(ADC1, &ADC_InitStruct);
 8000bb6:	197b      	adds	r3, r7, r5
 8000bb8:	4a14      	ldr	r2, [pc, #80]	; (8000c0c <MX_ADC_Init+0x144>)
 8000bba:	0019      	movs	r1, r3
 8000bbc:	0010      	movs	r0, r2
 8000bbe:	f000 fa61 	bl	8001084 <LL_ADC_Init>

  /* Enable ADC internal voltage regulator */
  LL_ADC_EnableInternalRegulator(ADC1);
 8000bc2:	4b12      	ldr	r3, [pc, #72]	; (8000c0c <MX_ADC_Init+0x144>)
 8000bc4:	0018      	movs	r0, r3
 8000bc6:	f7ff fc67 	bl	8000498 <LL_ADC_EnableInternalRegulator>
  /* Note: Variable divided by 2 to compensate partially */
  /* CPU processing cycles (depends on compilation optimization). */
  /* Note: If system core clock frequency is below 200kHz, wait time */
  /* is only a few CPU processing cycles. */
  uint32_t wait_loop_index;
  wait_loop_index = ((LL_ADC_DELAY_INTERNAL_REGUL_STAB_US * (SystemCoreClock / (100000 * 2))) / 10);
 8000bca:	4b12      	ldr	r3, [pc, #72]	; (8000c14 <MX_ADC_Init+0x14c>)
 8000bcc:	681b      	ldr	r3, [r3, #0]
 8000bce:	4912      	ldr	r1, [pc, #72]	; (8000c18 <MX_ADC_Init+0x150>)
 8000bd0:	0018      	movs	r0, r3
 8000bd2:	f7ff fa99 	bl	8000108 <__udivsi3>
 8000bd6:	0003      	movs	r3, r0
 8000bd8:	001a      	movs	r2, r3
 8000bda:	0013      	movs	r3, r2
 8000bdc:	009b      	lsls	r3, r3, #2
 8000bde:	189b      	adds	r3, r3, r2
 8000be0:	005b      	lsls	r3, r3, #1
 8000be2:	210a      	movs	r1, #10
 8000be4:	0018      	movs	r0, r3
 8000be6:	f7ff fa8f 	bl	8000108 <__udivsi3>
 8000bea:	0003      	movs	r3, r0
 8000bec:	63fb      	str	r3, [r7, #60]	; 0x3c
  while(wait_loop_index != 0)
 8000bee:	e002      	b.n	8000bf6 <MX_ADC_Init+0x12e>
  {
    wait_loop_index--;
 8000bf0:	6bfb      	ldr	r3, [r7, #60]	; 0x3c
 8000bf2:	3b01      	subs	r3, #1
 8000bf4:	63fb      	str	r3, [r7, #60]	; 0x3c
  while(wait_loop_index != 0)
 8000bf6:	6bfb      	ldr	r3, [r7, #60]	; 0x3c
 8000bf8:	2b00      	cmp	r3, #0
 8000bfa:	d1f9      	bne.n	8000bf0 <MX_ADC_Init+0x128>
  }
  /* USER CODE BEGIN ADC_Init 2 */

  /* USER CODE END ADC_Init 2 */

}
 8000bfc:	46c0      	nop			; (mov r8, r8)
 8000bfe:	46c0      	nop			; (mov r8, r8)
 8000c00:	46bd      	mov	sp, r7
 8000c02:	b010      	add	sp, #64	; 0x40
 8000c04:	bdb0      	pop	{r4, r5, r7, pc}
 8000c06:	46c0      	nop			; (mov r8, r8)
 8000c08:	04000002 	.word	0x04000002
 8000c0c:	40012400 	.word	0x40012400
 8000c10:	40012708 	.word	0x40012708
 8000c14:	20000004 	.word	0x20000004
 8000c18:	00030d40 	.word	0x00030d40

08000c1c <MX_SPI1_Init>:
  * @brief SPI1 Initialization Function
  * @param None
  * @retval None
  */
static void MX_SPI1_Init(void)
{
 8000c1c:	b590      	push	{r4, r7, lr}
 8000c1e:	b091      	sub	sp, #68	; 0x44
 8000c20:	af00      	add	r7, sp, #0

  /* USER CODE BEGIN SPI1_Init 0 */

  /* USER CODE END SPI1_Init 0 */

  LL_SPI_InitTypeDef SPI_InitStruct = {0};
 8000c22:	2418      	movs	r4, #24
 8000c24:	193b      	adds	r3, r7, r4
 8000c26:	0018      	movs	r0, r3
 8000c28:	2328      	movs	r3, #40	; 0x28
 8000c2a:	001a      	movs	r2, r3
 8000c2c:	2100      	movs	r1, #0
 8000c2e:	f001 f8ff 	bl	8001e30 <memset>

  LL_GPIO_InitTypeDef GPIO_InitStruct = {0};
 8000c32:	003b      	movs	r3, r7
 8000c34:	0018      	movs	r0, r3
 8000c36:	2318      	movs	r3, #24
 8000c38:	001a      	movs	r2, r3
 8000c3a:	2100      	movs	r1, #0
 8000c3c:	f001 f8f8 	bl	8001e30 <memset>

  /* Peripheral clock enable */
  LL_APB2_GRP1_EnableClock(LL_APB2_GRP1_PERIPH_SPI1);
 8000c40:	2380      	movs	r3, #128	; 0x80
 8000c42:	015b      	lsls	r3, r3, #5
 8000c44:	0018      	movs	r0, r3
 8000c46:	f7ff fd59 	bl	80006fc <LL_APB2_GRP1_EnableClock>

  LL_IOP_GRP1_EnableClock(LL_IOP_GRP1_PERIPH_GPIOA);
 8000c4a:	2001      	movs	r0, #1
 8000c4c:	f7ff fd6c 	bl	8000728 <LL_IOP_GRP1_EnableClock>
  /**SPI1 GPIO Configuration
  PA5   ------> SPI1_SCK
  PA7   ------> SPI1_MOSI
  */
  GPIO_InitStruct.Pin = LL_GPIO_PIN_5;
 8000c50:	003b      	movs	r3, r7
 8000c52:	2220      	movs	r2, #32
 8000c54:	601a      	str	r2, [r3, #0]
  GPIO_InitStruct.Mode = LL_GPIO_MODE_ALTERNATE;
 8000c56:	003b      	movs	r3, r7
 8000c58:	2202      	movs	r2, #2
 8000c5a:	605a      	str	r2, [r3, #4]
  GPIO_InitStruct.Speed = LL_GPIO_SPEED_FREQ_VERY_HIGH;
 8000c5c:	003b      	movs	r3, r7
 8000c5e:	2203      	movs	r2, #3
 8000c60:	609a      	str	r2, [r3, #8]
  GPIO_InitStruct.OutputType = LL_GPIO_OUTPUT_PUSHPULL;
 8000c62:	003b      	movs	r3, r7
 8000c64:	2200      	movs	r2, #0
 8000c66:	60da      	str	r2, [r3, #12]
  GPIO_InitStruct.Pull = LL_GPIO_PULL_NO;
 8000c68:	003b      	movs	r3, r7
 8000c6a:	2200      	movs	r2, #0
 8000c6c:	611a      	str	r2, [r3, #16]
  GPIO_InitStruct.Alternate = LL_GPIO_AF_0;
 8000c6e:	003b      	movs	r3, r7
 8000c70:	2200      	movs	r2, #0
 8000c72:	615a      	str	r2, [r3, #20]
  LL_GPIO_Init(GPIOA, &GPIO_InitStruct);
 8000c74:	003a      	movs	r2, r7
 8000c76:	23a0      	movs	r3, #160	; 0xa0
 8000c78:	05db      	lsls	r3, r3, #23
 8000c7a:	0011      	movs	r1, r2
 8000c7c:	0018      	movs	r0, r3
 8000c7e:	f000 fb22 	bl	80012c6 <LL_GPIO_Init>

  GPIO_InitStruct.Pin = LL_GPIO_PIN_7;
 8000c82:	003b      	movs	r3, r7
 8000c84:	2280      	movs	r2, #128	; 0x80
 8000c86:	601a      	str	r2, [r3, #0]
  GPIO_InitStruct.Mode = LL_GPIO_MODE_ALTERNATE;
 8000c88:	003b      	movs	r3, r7
 8000c8a:	2202      	movs	r2, #2
 8000c8c:	605a      	str	r2, [r3, #4]
  GPIO_InitStruct.Speed = LL_GPIO_SPEED_FREQ_VERY_HIGH;
 8000c8e:	003b      	movs	r3, r7
 8000c90:	2203      	movs	r2, #3
 8000c92:	609a      	str	r2, [r3, #8]
  GPIO_InitStruct.OutputType = LL_GPIO_OUTPUT_PUSHPULL;
 8000c94:	003b      	movs	r3, r7
 8000c96:	2200      	movs	r2, #0
 8000c98:	60da      	str	r2, [r3, #12]
  GPIO_InitStruct.Pull = LL_GPIO_PULL_NO;
 8000c9a:	003b      	movs	r3, r7
 8000c9c:	2200      	movs	r2, #0
 8000c9e:	611a      	str	r2, [r3, #16]
  GPIO_InitStruct.Alternate = LL_GPIO_AF_0;
 8000ca0:	003b      	movs	r3, r7
 8000ca2:	2200      	movs	r2, #0
 8000ca4:	615a      	str	r2, [r3, #20]
  LL_GPIO_Init(GPIOA, &GPIO_InitStruct);
 8000ca6:	003a      	movs	r2, r7
 8000ca8:	23a0      	movs	r3, #160	; 0xa0
 8000caa:	05db      	lsls	r3, r3, #23
 8000cac:	0011      	movs	r1, r2
 8000cae:	0018      	movs	r0, r3
 8000cb0:	f000 fb09 	bl	80012c6 <LL_GPIO_Init>

  /* USER CODE BEGIN SPI1_Init 1 */

  /* USER CODE END SPI1_Init 1 */
  /* SPI1 parameter configuration*/
  SPI_InitStruct.TransferDirection = LL_SPI_FULL_DUPLEX;
 8000cb4:	193b      	adds	r3, r7, r4
 8000cb6:	2200      	movs	r2, #0
 8000cb8:	601a      	str	r2, [r3, #0]
  SPI_InitStruct.Mode = LL_SPI_MODE_MASTER;
 8000cba:	193b      	adds	r3, r7, r4
 8000cbc:	2282      	movs	r2, #130	; 0x82
 8000cbe:	0052      	lsls	r2, r2, #1
 8000cc0:	605a      	str	r2, [r3, #4]
  SPI_InitStruct.DataWidth = LL_SPI_DATAWIDTH_8BIT;
 8000cc2:	0021      	movs	r1, r4
 8000cc4:	187b      	adds	r3, r7, r1
 8000cc6:	2200      	movs	r2, #0
 8000cc8:	609a      	str	r2, [r3, #8]
  SPI_InitStruct.ClockPolarity = LL_SPI_POLARITY_LOW;
 8000cca:	187b      	adds	r3, r7, r1
 8000ccc:	2200      	movs	r2, #0
 8000cce:	60da      	str	r2, [r3, #12]
  SPI_InitStruct.ClockPhase = LL_SPI_PHASE_1EDGE;
 8000cd0:	187b      	adds	r3, r7, r1
 8000cd2:	2200      	movs	r2, #0
 8000cd4:	611a      	str	r2, [r3, #16]
  SPI_InitStruct.NSS = LL_SPI_NSS_SOFT;
 8000cd6:	187b      	adds	r3, r7, r1
 8000cd8:	2280      	movs	r2, #128	; 0x80
 8000cda:	0092      	lsls	r2, r2, #2
 8000cdc:	615a      	str	r2, [r3, #20]
  SPI_InitStruct.BaudRate = LL_SPI_BAUDRATEPRESCALER_DIV2;
 8000cde:	187b      	adds	r3, r7, r1
 8000ce0:	2200      	movs	r2, #0
 8000ce2:	619a      	str	r2, [r3, #24]
  SPI_InitStruct.BitOrder = LL_SPI_MSB_FIRST;
 8000ce4:	187b      	adds	r3, r7, r1
 8000ce6:	2200      	movs	r2, #0
 8000ce8:	61da      	str	r2, [r3, #28]
  SPI_InitStruct.CRCCalculation = LL_SPI_CRCCALCULATION_DISABLE;
 8000cea:	187b      	adds	r3, r7, r1
 8000cec:	2200      	movs	r2, #0
 8000cee:	621a      	str	r2, [r3, #32]
  SPI_InitStruct.CRCPoly = 7;
 8000cf0:	187b      	adds	r3, r7, r1
 8000cf2:	2207      	movs	r2, #7
 8000cf4:	625a      	str	r2, [r3, #36]	; 0x24
  LL_SPI_Init(SPI1, &SPI_InitStruct);
 8000cf6:	187b      	adds	r3, r7, r1
 8000cf8:	4a06      	ldr	r2, [pc, #24]	; (8000d14 <MX_SPI1_Init+0xf8>)
 8000cfa:	0019      	movs	r1, r3
 8000cfc:	0010      	movs	r0, r2
 8000cfe:	f000 fcf7 	bl	80016f0 <LL_SPI_Init>
  LL_SPI_SetStandard(SPI1, LL_SPI_PROTOCOL_MOTOROLA);
 8000d02:	4b04      	ldr	r3, [pc, #16]	; (8000d14 <MX_SPI1_Init+0xf8>)
 8000d04:	2100      	movs	r1, #0
 8000d06:	0018      	movs	r0, r3
 8000d08:	f7ff fd6a 	bl	80007e0 <LL_SPI_SetStandard>
  /* USER CODE BEGIN SPI1_Init 2 */

  /* USER CODE END SPI1_Init 2 */

}
 8000d0c:	46c0      	nop			; (mov r8, r8)
 8000d0e:	46bd      	mov	sp, r7
 8000d10:	b011      	add	sp, #68	; 0x44
 8000d12:	bd90      	pop	{r4, r7, pc}
 8000d14:	40013000 	.word	0x40013000

08000d18 <MX_TIM2_Init>:
  * @brief TIM2 Initialization Function
  * @param None
  * @retval None
  */
static void MX_TIM2_Init(void)
{
 8000d18:	b5b0      	push	{r4, r5, r7, lr}
 8000d1a:	b08e      	sub	sp, #56	; 0x38
 8000d1c:	af00      	add	r7, sp, #0

  /* USER CODE BEGIN TIM2_Init 0 */

  /* USER CODE END TIM2_Init 0 */

  LL_TIM_InitTypeDef TIM_InitStruct = {0};
 8000d1e:	2428      	movs	r4, #40	; 0x28
 8000d20:	193b      	adds	r3, r7, r4
 8000d22:	0018      	movs	r0, r3
 8000d24:	2310      	movs	r3, #16
 8000d26:	001a      	movs	r2, r3
 8000d28:	2100      	movs	r1, #0
 8000d2a:	f001 f881 	bl	8001e30 <memset>
  LL_TIM_OC_InitTypeDef TIM_OC_InitStruct = {0};
 8000d2e:	2518      	movs	r5, #24
 8000d30:	197b      	adds	r3, r7, r5
 8000d32:	0018      	movs	r0, r3
 8000d34:	2310      	movs	r3, #16
 8000d36:	001a      	movs	r2, r3
 8000d38:	2100      	movs	r1, #0
 8000d3a:	f001 f879 	bl	8001e30 <memset>

  LL_GPIO_InitTypeDef GPIO_InitStruct = {0};
 8000d3e:	003b      	movs	r3, r7
 8000d40:	0018      	movs	r0, r3
 8000d42:	2318      	movs	r3, #24
 8000d44:	001a      	movs	r2, r3
 8000d46:	2100      	movs	r1, #0
 8000d48:	f001 f872 	bl	8001e30 <memset>

  /* Peripheral clock enable */
  LL_APB1_GRP1_EnableClock(LL_APB1_GRP1_PERIPH_TIM2);
 8000d4c:	2001      	movs	r0, #1
 8000d4e:	f7ff fcbf 	bl	80006d0 <LL_APB1_GRP1_EnableClock>

  /* USER CODE BEGIN TIM2_Init 1 */

  /* USER CODE END TIM2_Init 1 */
  TIM_InitStruct.Prescaler = 124;
 8000d52:	193b      	adds	r3, r7, r4
 8000d54:	227c      	movs	r2, #124	; 0x7c
 8000d56:	801a      	strh	r2, [r3, #0]
  TIM_InitStruct.CounterMode = LL_TIM_COUNTERMODE_UP;
 8000d58:	193b      	adds	r3, r7, r4
 8000d5a:	2200      	movs	r2, #0
 8000d5c:	605a      	str	r2, [r3, #4]
  TIM_InitStruct.Autoreload = 255;
 8000d5e:	193b      	adds	r3, r7, r4
 8000d60:	22ff      	movs	r2, #255	; 0xff
 8000d62:	609a      	str	r2, [r3, #8]
  TIM_InitStruct.ClockDivision = LL_TIM_CLOCKDIVISION_DIV1;
 8000d64:	193b      	adds	r3, r7, r4
 8000d66:	2200      	movs	r2, #0
 8000d68:	60da      	str	r2, [r3, #12]
  LL_TIM_Init(TIM2, &TIM_InitStruct);
 8000d6a:	193a      	adds	r2, r7, r4
 8000d6c:	2380      	movs	r3, #128	; 0x80
 8000d6e:	05db      	lsls	r3, r3, #23
 8000d70:	0011      	movs	r1, r2
 8000d72:	0018      	movs	r0, r3
 8000d74:	f000 fd68 	bl	8001848 <LL_TIM_Init>
  LL_TIM_DisableARRPreload(TIM2);
 8000d78:	2380      	movs	r3, #128	; 0x80
 8000d7a:	05db      	lsls	r3, r3, #23
 8000d7c:	0018      	movs	r0, r3
 8000d7e:	f7ff fd41 	bl	8000804 <LL_TIM_DisableARRPreload>
  LL_TIM_SetClockSource(TIM2, LL_TIM_CLOCKSOURCE_INTERNAL);
 8000d82:	2380      	movs	r3, #128	; 0x80
 8000d84:	05db      	lsls	r3, r3, #23
 8000d86:	2100      	movs	r1, #0
 8000d88:	0018      	movs	r0, r3
 8000d8a:	f7ff fdbb 	bl	8000904 <LL_TIM_SetClockSource>
  LL_TIM_OC_EnablePreload(TIM2, LL_TIM_CHANNEL_CH1);
 8000d8e:	2380      	movs	r3, #128	; 0x80
 8000d90:	05db      	lsls	r3, r3, #23
 8000d92:	2101      	movs	r1, #1
 8000d94:	0018      	movs	r0, r3
 8000d96:	f7ff fd7d 	bl	8000894 <LL_TIM_OC_EnablePreload>
  TIM_OC_InitStruct.OCMode = LL_TIM_OCMODE_PWM1;
 8000d9a:	0029      	movs	r1, r5
 8000d9c:	187b      	adds	r3, r7, r1
 8000d9e:	2260      	movs	r2, #96	; 0x60
 8000da0:	601a      	str	r2, [r3, #0]
  TIM_OC_InitStruct.OCState = LL_TIM_OCSTATE_DISABLE;
 8000da2:	187b      	adds	r3, r7, r1
 8000da4:	2200      	movs	r2, #0
 8000da6:	605a      	str	r2, [r3, #4]
  TIM_OC_InitStruct.CompareValue = 0;
 8000da8:	187b      	adds	r3, r7, r1
 8000daa:	2200      	movs	r2, #0
 8000dac:	609a      	str	r2, [r3, #8]
  TIM_OC_InitStruct.OCPolarity = LL_TIM_OCPOLARITY_HIGH;
 8000dae:	187b      	adds	r3, r7, r1
 8000db0:	2200      	movs	r2, #0
 8000db2:	60da      	str	r2, [r3, #12]
  LL_TIM_OC_Init(TIM2, LL_TIM_CHANNEL_CH1, &TIM_OC_InitStruct);
 8000db4:	187a      	adds	r2, r7, r1
 8000db6:	2380      	movs	r3, #128	; 0x80
 8000db8:	05db      	lsls	r3, r3, #23
 8000dba:	2101      	movs	r1, #1
 8000dbc:	0018      	movs	r0, r3
 8000dbe:	f000 fd8b 	bl	80018d8 <LL_TIM_OC_Init>
  LL_TIM_OC_DisableFast(TIM2, LL_TIM_CHANNEL_CH1);
 8000dc2:	2380      	movs	r3, #128	; 0x80
 8000dc4:	05db      	lsls	r3, r3, #23
 8000dc6:	2101      	movs	r1, #1
 8000dc8:	0018      	movs	r0, r3
 8000dca:	f7ff fd2b 	bl	8000824 <LL_TIM_OC_DisableFast>
  LL_TIM_SetTriggerOutput(TIM2, LL_TIM_TRGO_RESET);
 8000dce:	2380      	movs	r3, #128	; 0x80
 8000dd0:	05db      	lsls	r3, r3, #23
 8000dd2:	2100      	movs	r1, #0
 8000dd4:	0018      	movs	r0, r3
 8000dd6:	f7ff fda9 	bl	800092c <LL_TIM_SetTriggerOutput>
  LL_TIM_DisableMasterSlaveMode(TIM2);
 8000dda:	2380      	movs	r3, #128	; 0x80
 8000ddc:	05db      	lsls	r3, r3, #23
 8000dde:	0018      	movs	r0, r3
 8000de0:	f7ff fdb6 	bl	8000950 <LL_TIM_DisableMasterSlaveMode>
  /* USER CODE BEGIN TIM2_Init 2 */

  /* USER CODE END TIM2_Init 2 */
  LL_IOP_GRP1_EnableClock(LL_IOP_GRP1_PERIPH_GPIOA);
 8000de4:	2001      	movs	r0, #1
 8000de6:	f7ff fc9f 	bl	8000728 <LL_IOP_GRP1_EnableClock>
  /**TIM2 GPIO Configuration
  PA8   ------> TIM2_CH1
  */
  GPIO_InitStruct.Pin = LL_GPIO_PIN_8;
 8000dea:	003b      	movs	r3, r7
 8000dec:	2280      	movs	r2, #128	; 0x80
 8000dee:	0052      	lsls	r2, r2, #1
 8000df0:	601a      	str	r2, [r3, #0]
  GPIO_InitStruct.Mode = LL_GPIO_MODE_ALTERNATE;
 8000df2:	003b      	movs	r3, r7
 8000df4:	2202      	movs	r2, #2
 8000df6:	605a      	str	r2, [r3, #4]
  GPIO_InitStruct.Speed = LL_GPIO_SPEED_FREQ_LOW;
 8000df8:	003b      	movs	r3, r7
 8000dfa:	2200      	movs	r2, #0
 8000dfc:	609a      	str	r2, [r3, #8]
  GPIO_InitStruct.OutputType = LL_GPIO_OUTPUT_PUSHPULL;
 8000dfe:	003b      	movs	r3, r7
 8000e00:	2200      	movs	r2, #0
 8000e02:	60da      	str	r2, [r3, #12]
  GPIO_InitStruct.Pull = LL_GPIO_PULL_NO;
 8000e04:	003b      	movs	r3, r7
 8000e06:	2200      	movs	r2, #0
 8000e08:	611a      	str	r2, [r3, #16]
  GPIO_InitStruct.Alternate = LL_GPIO_AF_5;
 8000e0a:	003b      	movs	r3, r7
 8000e0c:	2205      	movs	r2, #5
 8000e0e:	615a      	str	r2, [r3, #20]
  LL_GPIO_Init(GPIOA, &GPIO_InitStruct);
 8000e10:	003a      	movs	r2, r7
 8000e12:	23a0      	movs	r3, #160	; 0xa0
 8000e14:	05db      	lsls	r3, r3, #23
 8000e16:	0011      	movs	r1, r2
 8000e18:	0018      	movs	r0, r3
 8000e1a:	f000 fa54 	bl	80012c6 <LL_GPIO_Init>

}
 8000e1e:	46c0      	nop			; (mov r8, r8)
 8000e20:	46bd      	mov	sp, r7
 8000e22:	b00e      	add	sp, #56	; 0x38
 8000e24:	bdb0      	pop	{r4, r5, r7, pc}
	...

08000e28 <MX_USART2_UART_Init>:
  * @brief USART2 Initialization Function
  * @param None
  * @retval None
  */
static void MX_USART2_UART_Init(void)
{
 8000e28:	b590      	push	{r4, r7, lr}
 8000e2a:	b08f      	sub	sp, #60	; 0x3c
 8000e2c:	af00      	add	r7, sp, #0

  /* USER CODE BEGIN USART2_Init 0 */

  /* USER CODE END USART2_Init 0 */

  LL_USART_InitTypeDef USART_InitStruct = {0};
 8000e2e:	241c      	movs	r4, #28
 8000e30:	193b      	adds	r3, r7, r4
 8000e32:	0018      	movs	r0, r3
 8000e34:	231c      	movs	r3, #28
 8000e36:	001a      	movs	r2, r3
 8000e38:	2100      	movs	r1, #0
 8000e3a:	f000 fff9 	bl	8001e30 <memset>

  LL_GPIO_InitTypeDef GPIO_InitStruct = {0};
 8000e3e:	1d3b      	adds	r3, r7, #4
 8000e40:	0018      	movs	r0, r3
 8000e42:	2318      	movs	r3, #24
 8000e44:	001a      	movs	r2, r3
 8000e46:	2100      	movs	r1, #0
 8000e48:	f000 fff2 	bl	8001e30 <memset>

  /* Peripheral clock enable */
  LL_APB1_GRP1_EnableClock(LL_APB1_GRP1_PERIPH_USART2);
 8000e4c:	2380      	movs	r3, #128	; 0x80
 8000e4e:	029b      	lsls	r3, r3, #10
 8000e50:	0018      	movs	r0, r3
 8000e52:	f7ff fc3d 	bl	80006d0 <LL_APB1_GRP1_EnableClock>

  LL_IOP_GRP1_EnableClock(LL_IOP_GRP1_PERIPH_GPIOA);
 8000e56:	2001      	movs	r0, #1
 8000e58:	f7ff fc66 	bl	8000728 <LL_IOP_GRP1_EnableClock>
  /**USART2 GPIO Configuration
  PA0-CK_IN   ------> USART2_RX
  PA2   ------> USART2_TX
  */
  GPIO_InitStruct.Pin = LL_GPIO_PIN_0;
 8000e5c:	1d3b      	adds	r3, r7, #4
 8000e5e:	2201      	movs	r2, #1
 8000e60:	601a      	str	r2, [r3, #0]
  GPIO_InitStruct.Mode = LL_GPIO_MODE_ALTERNATE;
 8000e62:	1d3b      	adds	r3, r7, #4
 8000e64:	2202      	movs	r2, #2
 8000e66:	605a      	str	r2, [r3, #4]
  GPIO_InitStruct.Speed = LL_GPIO_SPEED_FREQ_VERY_HIGH;
 8000e68:	1d3b      	adds	r3, r7, #4
 8000e6a:	2203      	movs	r2, #3
 8000e6c:	609a      	str	r2, [r3, #8]
  GPIO_InitStruct.OutputType = LL_GPIO_OUTPUT_PUSHPULL;
 8000e6e:	1d3b      	adds	r3, r7, #4
 8000e70:	2200      	movs	r2, #0
 8000e72:	60da      	str	r2, [r3, #12]
  GPIO_InitStruct.Pull = LL_GPIO_PULL_NO;
 8000e74:	1d3b      	adds	r3, r7, #4
 8000e76:	2200      	movs	r2, #0
 8000e78:	611a      	str	r2, [r3, #16]
  GPIO_InitStruct.Alternate = LL_GPIO_AF_0;
 8000e7a:	1d3b      	adds	r3, r7, #4
 8000e7c:	2200      	movs	r2, #0
 8000e7e:	615a      	str	r2, [r3, #20]
  LL_GPIO_Init(GPIOA, &GPIO_InitStruct);
 8000e80:	1d3a      	adds	r2, r7, #4
 8000e82:	23a0      	movs	r3, #160	; 0xa0
 8000e84:	05db      	lsls	r3, r3, #23
 8000e86:	0011      	movs	r1, r2
 8000e88:	0018      	movs	r0, r3
 8000e8a:	f000 fa1c 	bl	80012c6 <LL_GPIO_Init>

  GPIO_InitStruct.Pin = LL_GPIO_PIN_2;
 8000e8e:	1d3b      	adds	r3, r7, #4
 8000e90:	2204      	movs	r2, #4
 8000e92:	601a      	str	r2, [r3, #0]
  GPIO_InitStruct.Mode = LL_GPIO_MODE_ALTERNATE;
 8000e94:	1d3b      	adds	r3, r7, #4
 8000e96:	2202      	movs	r2, #2
 8000e98:	605a      	str	r2, [r3, #4]
  GPIO_InitStruct.Speed = LL_GPIO_SPEED_FREQ_VERY_HIGH;
 8000e9a:	1d3b      	adds	r3, r7, #4
 8000e9c:	2203      	movs	r2, #3
 8000e9e:	609a      	str	r2, [r3, #8]
  GPIO_InitStruct.OutputType = LL_GPIO_OUTPUT_PUSHPULL;
 8000ea0:	1d3b      	adds	r3, r7, #4
 8000ea2:	2200      	movs	r2, #0
 8000ea4:	60da      	str	r2, [r3, #12]
  GPIO_InitStruct.Pull = LL_GPIO_PULL_NO;
 8000ea6:	1d3b      	adds	r3, r7, #4
 8000ea8:	2200      	movs	r2, #0
 8000eaa:	611a      	str	r2, [r3, #16]
  GPIO_InitStruct.Alternate = LL_GPIO_AF_4;
 8000eac:	1d3b      	adds	r3, r7, #4
 8000eae:	2204      	movs	r2, #4
 8000eb0:	615a      	str	r2, [r3, #20]
  LL_GPIO_Init(GPIOA, &GPIO_InitStruct);
 8000eb2:	1d3a      	adds	r2, r7, #4
 8000eb4:	23a0      	movs	r3, #160	; 0xa0
 8000eb6:	05db      	lsls	r3, r3, #23
 8000eb8:	0011      	movs	r1, r2
 8000eba:	0018      	movs	r0, r3
 8000ebc:	f000 fa03 	bl	80012c6 <LL_GPIO_Init>

  /* USER CODE BEGIN USART2_Init 1 */

  /* USER CODE END USART2_Init 1 */
  USART_InitStruct.BaudRate = 115200;
 8000ec0:	193b      	adds	r3, r7, r4
 8000ec2:	22e1      	movs	r2, #225	; 0xe1
 8000ec4:	0252      	lsls	r2, r2, #9
 8000ec6:	601a      	str	r2, [r3, #0]
  USART_InitStruct.DataWidth = LL_USART_DATAWIDTH_8B;
 8000ec8:	0021      	movs	r1, r4
 8000eca:	187b      	adds	r3, r7, r1
 8000ecc:	2200      	movs	r2, #0
 8000ece:	605a      	str	r2, [r3, #4]
  USART_InitStruct.StopBits = LL_USART_STOPBITS_1;
 8000ed0:	187b      	adds	r3, r7, r1
 8000ed2:	2200      	movs	r2, #0
 8000ed4:	609a      	str	r2, [r3, #8]
  USART_InitStruct.Parity = LL_USART_PARITY_NONE;
 8000ed6:	187b      	adds	r3, r7, r1
 8000ed8:	2200      	movs	r2, #0
 8000eda:	60da      	str	r2, [r3, #12]
  USART_InitStruct.TransferDirection = LL_USART_DIRECTION_TX_RX;
 8000edc:	187b      	adds	r3, r7, r1
 8000ede:	220c      	movs	r2, #12
 8000ee0:	611a      	str	r2, [r3, #16]
  USART_InitStruct.HardwareFlowControl = LL_USART_HWCONTROL_NONE;
 8000ee2:	187b      	adds	r3, r7, r1
 8000ee4:	2200      	movs	r2, #0
 8000ee6:	615a      	str	r2, [r3, #20]
  USART_InitStruct.OverSampling = LL_USART_OVERSAMPLING_16;
 8000ee8:	187b      	adds	r3, r7, r1
 8000eea:	2200      	movs	r2, #0
 8000eec:	619a      	str	r2, [r3, #24]
  LL_USART_Init(USART2, &USART_InitStruct);
 8000eee:	187b      	adds	r3, r7, r1
 8000ef0:	4a08      	ldr	r2, [pc, #32]	; (8000f14 <MX_USART2_UART_Init+0xec>)
 8000ef2:	0019      	movs	r1, r3
 8000ef4:	0010      	movs	r0, r2
 8000ef6:	f000 fee9 	bl	8001ccc <LL_USART_Init>
  LL_USART_ConfigAsyncMode(USART2);
 8000efa:	4b06      	ldr	r3, [pc, #24]	; (8000f14 <MX_USART2_UART_Init+0xec>)
 8000efc:	0018      	movs	r0, r3
 8000efe:	f7ff fd45 	bl	800098c <LL_USART_ConfigAsyncMode>
  LL_USART_Enable(USART2);
 8000f02:	4b04      	ldr	r3, [pc, #16]	; (8000f14 <MX_USART2_UART_Init+0xec>)
 8000f04:	0018      	movs	r0, r3
 8000f06:	f7ff fd32 	bl	800096e <LL_USART_Enable>
  /* USER CODE BEGIN USART2_Init 2 */

  /* USER CODE END USART2_Init 2 */

}
 8000f0a:	46c0      	nop			; (mov r8, r8)
 8000f0c:	46bd      	mov	sp, r7
 8000f0e:	b00f      	add	sp, #60	; 0x3c
 8000f10:	bd90      	pop	{r4, r7, pc}
 8000f12:	46c0      	nop			; (mov r8, r8)
 8000f14:	40004400 	.word	0x40004400

08000f18 <MX_GPIO_Init>:
  * @brief GPIO Initialization Function
  * @param None
  * @retval None
  */
static void MX_GPIO_Init(void)
{
 8000f18:	b580      	push	{r7, lr}
 8000f1a:	b086      	sub	sp, #24
 8000f1c:	af00      	add	r7, sp, #0
  LL_GPIO_InitTypeDef GPIO_InitStruct = {0};
 8000f1e:	003b      	movs	r3, r7
 8000f20:	0018      	movs	r0, r3
 8000f22:	2318      	movs	r3, #24
 8000f24:	001a      	movs	r2, r3
 8000f26:	2100      	movs	r1, #0
 8000f28:	f000 ff82 	bl	8001e30 <memset>
/* USER CODE BEGIN MX_GPIO_Init_1 */
/* USER CODE END MX_GPIO_Init_1 */

  /* GPIO Ports Clock Enable */
  LL_IOP_GRP1_EnableClock(LL_IOP_GRP1_PERIPH_GPIOA);
 8000f2c:	2001      	movs	r0, #1
 8000f2e:	f7ff fbfb 	bl	8000728 <LL_IOP_GRP1_EnableClock>

  /**/
  LL_GPIO_ResetOutputPin(DAC_nLDAC_GPIO_Port, DAC_nLDAC_Pin);
 8000f32:	23a0      	movs	r3, #160	; 0xa0
 8000f34:	05db      	lsls	r3, r3, #23
 8000f36:	2108      	movs	r1, #8
 8000f38:	0018      	movs	r0, r3
 8000f3a:	f7ff fd3f 	bl	80009bc <LL_GPIO_ResetOutputPin>

  /**/
  LL_GPIO_ResetOutputPin(DAC_nCS_GPIO_Port, DAC_nCS_Pin);
 8000f3e:	23a0      	movs	r3, #160	; 0xa0
 8000f40:	05db      	lsls	r3, r3, #23
 8000f42:	2110      	movs	r1, #16
 8000f44:	0018      	movs	r0, r3
 8000f46:	f7ff fd39 	bl	80009bc <LL_GPIO_ResetOutputPin>

  /**/
  GPIO_InitStruct.Pin = DAC_nLDAC_Pin;
 8000f4a:	003b      	movs	r3, r7
 8000f4c:	2208      	movs	r2, #8
 8000f4e:	601a      	str	r2, [r3, #0]
  GPIO_InitStruct.Mode = LL_GPIO_MODE_OUTPUT;
 8000f50:	003b      	movs	r3, r7
 8000f52:	2201      	movs	r2, #1
 8000f54:	605a      	str	r2, [r3, #4]
  GPIO_InitStruct.Speed = LL_GPIO_SPEED_FREQ_LOW;
 8000f56:	003b      	movs	r3, r7
 8000f58:	2200      	movs	r2, #0
 8000f5a:	609a      	str	r2, [r3, #8]
  GPIO_InitStruct.OutputType = LL_GPIO_OUTPUT_PUSHPULL;
 8000f5c:	003b      	movs	r3, r7
 8000f5e:	2200      	movs	r2, #0
 8000f60:	60da      	str	r2, [r3, #12]
  GPIO_InitStruct.Pull = LL_GPIO_PULL_NO;
 8000f62:	003b      	movs	r3, r7
 8000f64:	2200      	movs	r2, #0
 8000f66:	611a      	str	r2, [r3, #16]
  LL_GPIO_Init(DAC_nLDAC_GPIO_Port, &GPIO_InitStruct);
 8000f68:	003a      	movs	r2, r7
 8000f6a:	23a0      	movs	r3, #160	; 0xa0
 8000f6c:	05db      	lsls	r3, r3, #23
 8000f6e:	0011      	movs	r1, r2
 8000f70:	0018      	movs	r0, r3
 8000f72:	f000 f9a8 	bl	80012c6 <LL_GPIO_Init>

  /**/
  GPIO_InitStruct.Pin = DAC_nCS_Pin;
 8000f76:	003b      	movs	r3, r7
 8000f78:	2210      	movs	r2, #16
 8000f7a:	601a      	str	r2, [r3, #0]
  GPIO_InitStruct.Mode = LL_GPIO_MODE_OUTPUT;
 8000f7c:	003b      	movs	r3, r7
 8000f7e:	2201      	movs	r2, #1
 8000f80:	605a      	str	r2, [r3, #4]
  GPIO_InitStruct.Speed = LL_GPIO_SPEED_FREQ_LOW;
 8000f82:	003b      	movs	r3, r7
 8000f84:	2200      	movs	r2, #0
 8000f86:	609a      	str	r2, [r3, #8]
  GPIO_InitStruct.OutputType = LL_GPIO_OUTPUT_PUSHPULL;
 8000f88:	003b      	movs	r3, r7
 8000f8a:	2200      	movs	r2, #0
 8000f8c:	60da      	str	r2, [r3, #12]
  GPIO_InitStruct.Pull = LL_GPIO_PULL_NO;
 8000f8e:	003b      	movs	r3, r7
 8000f90:	2200      	movs	r2, #0
 8000f92:	611a      	str	r2, [r3, #16]
  LL_GPIO_Init(DAC_nCS_GPIO_Port, &GPIO_InitStruct);
 8000f94:	003a      	movs	r2, r7
 8000f96:	23a0      	movs	r3, #160	; 0xa0
 8000f98:	05db      	lsls	r3, r3, #23
 8000f9a:	0011      	movs	r1, r2
 8000f9c:	0018      	movs	r0, r3
 8000f9e:	f000 f992 	bl	80012c6 <LL_GPIO_Init>

/* USER CODE BEGIN MX_GPIO_Init_2 */
/* USER CODE END MX_GPIO_Init_2 */
}
 8000fa2:	46c0      	nop			; (mov r8, r8)
 8000fa4:	46bd      	mov	sp, r7
 8000fa6:	b006      	add	sp, #24
 8000fa8:	bd80      	pop	{r7, pc}

08000faa <NMI_Handler>:
/******************************************************************************/
/**
  * @brief This function handles Non maskable interrupt.
  */
void NMI_Handler(void)
{
 8000faa:	b580      	push	{r7, lr}
 8000fac:	af00      	add	r7, sp, #0
  /* USER CODE BEGIN NonMaskableInt_IRQn 0 */

  /* USER CODE END NonMaskableInt_IRQn 0 */
  /* USER CODE BEGIN NonMaskableInt_IRQn 1 */
   while (1)
 8000fae:	e7fe      	b.n	8000fae <NMI_Handler+0x4>

08000fb0 <HardFault_Handler>:

/**
  * @brief This function handles Hard fault interrupt.
  */
void HardFault_Handler(void)
{
 8000fb0:	b580      	push	{r7, lr}
 8000fb2:	af00      	add	r7, sp, #0
  /* USER CODE BEGIN HardFault_IRQn 0 */

  /* USER CODE END HardFault_IRQn 0 */
  while (1)
 8000fb4:	e7fe      	b.n	8000fb4 <HardFault_Handler+0x4>

08000fb6 <SVC_Handler>:

/**
  * @brief This function handles System service call via SWI instruction.
  */
void SVC_Handler(void)
{
 8000fb6:	b580      	push	{r7, lr}
 8000fb8:	af00      	add	r7, sp, #0

  /* USER CODE END SVC_IRQn 0 */
  /* USER CODE BEGIN SVC_IRQn 1 */

  /* USER CODE END SVC_IRQn 1 */
}
 8000fba:	46c0      	nop			; (mov r8, r8)
 8000fbc:	46bd      	mov	sp, r7
 8000fbe:	bd80      	pop	{r7, pc}

08000fc0 <PendSV_Handler>:

/**
  * @brief This function handles Pendable request for system service.
  */
void PendSV_Handler(void)
{
 8000fc0:	b580      	push	{r7, lr}
 8000fc2:	af00      	add	r7, sp, #0

  /* USER CODE END PendSV_IRQn 0 */
  /* USER CODE BEGIN PendSV_IRQn 1 */

  /* USER CODE END PendSV_IRQn 1 */
}
 8000fc4:	46c0      	nop			; (mov r8, r8)
 8000fc6:	46bd      	mov	sp, r7
 8000fc8:	bd80      	pop	{r7, pc}

08000fca <SysTick_Handler>:

/**
  * @brief This function handles System tick timer.
  */
void SysTick_Handler(void)
{
 8000fca:	b580      	push	{r7, lr}
 8000fcc:	af00      	add	r7, sp, #0
  /* USER CODE END SysTick_IRQn 0 */

  /* USER CODE BEGIN SysTick_IRQn 1 */

  /* USER CODE END SysTick_IRQn 1 */
}
 8000fce:	46c0      	nop			; (mov r8, r8)
 8000fd0:	46bd      	mov	sp, r7
 8000fd2:	bd80      	pop	{r7, pc}

08000fd4 <SystemInit>:
  * @brief  Setup the microcontroller system.
  * @param  None
  * @retval None
  */
void SystemInit (void)
{
 8000fd4:	b580      	push	{r7, lr}
 8000fd6:	af00      	add	r7, sp, #0
  /* Configure the Vector Table location add offset address ------------------*/
#if defined (USER_VECT_TAB_ADDRESS)
  SCB->VTOR = VECT_TAB_BASE_ADDRESS | VECT_TAB_OFFSET; /* Vector Table Relocation in Internal SRAM */
#endif /* USER_VECT_TAB_ADDRESS */
}
 8000fd8:	46c0      	nop			; (mov r8, r8)
 8000fda:	46bd      	mov	sp, r7
 8000fdc:	bd80      	pop	{r7, pc}
	...

08000fe0 <Reset_Handler>:

    .section  .text.Reset_Handler
  .weak  Reset_Handler
  .type  Reset_Handler, %function
Reset_Handler:  
   ldr   r0, =_estack
 8000fe0:	4813      	ldr	r0, [pc, #76]	; (8001030 <LoopForever+0x2>)
   mov   sp, r0          /* set stack pointer */
 8000fe2:	4685      	mov	sp, r0
   
/* Call the clock system initialization function.*/
  bl  SystemInit
 8000fe4:	f7ff fff6 	bl	8000fd4 <SystemInit>

/*Check if boot space corresponds to system memory*/

    LDR R0,=0x00000004
 8000fe8:	4812      	ldr	r0, [pc, #72]	; (8001034 <LoopForever+0x6>)
    LDR R1, [R0]
 8000fea:	6801      	ldr	r1, [r0, #0]
    LSRS R1, R1, #24
 8000fec:	0e09      	lsrs	r1, r1, #24
    LDR R2,=0x1F
 8000fee:	4a12      	ldr	r2, [pc, #72]	; (8001038 <LoopForever+0xa>)
    CMP R1, R2
 8000ff0:	4291      	cmp	r1, r2
    BNE ApplicationStart
 8000ff2:	d105      	bne.n	8001000 <ApplicationStart>

 /*SYSCFG clock enable*/
    LDR R0,=0x40021034
 8000ff4:	4811      	ldr	r0, [pc, #68]	; (800103c <LoopForever+0xe>)
    LDR R1,=0x00000001
 8000ff6:	4912      	ldr	r1, [pc, #72]	; (8001040 <LoopForever+0x12>)
    STR R1, [R0]
 8000ff8:	6001      	str	r1, [r0, #0]

/*Set CFGR1 register with flash memory remap at address 0*/
    LDR R0,=0x40010000
 8000ffa:	4812      	ldr	r0, [pc, #72]	; (8001044 <LoopForever+0x16>)
    LDR R1,=0x00000000
 8000ffc:	4912      	ldr	r1, [pc, #72]	; (8001048 <LoopForever+0x1a>)
    STR R1, [R0]
 8000ffe:	6001      	str	r1, [r0, #0]

08001000 <ApplicationStart>:

ApplicationStart:
/* Copy the data segment initializers from flash to SRAM */
  ldr r0, =_sdata
 8001000:	4812      	ldr	r0, [pc, #72]	; (800104c <LoopForever+0x1e>)
  ldr r1, =_edata
 8001002:	4913      	ldr	r1, [pc, #76]	; (8001050 <LoopForever+0x22>)
  ldr r2, =_sidata
 8001004:	4a13      	ldr	r2, [pc, #76]	; (8001054 <LoopForever+0x26>)
  movs r3, #0
 8001006:	2300      	movs	r3, #0
  b LoopCopyDataInit
 8001008:	e002      	b.n	8001010 <LoopCopyDataInit>

0800100a <CopyDataInit>:

CopyDataInit:
  ldr r4, [r2, r3]
 800100a:	58d4      	ldr	r4, [r2, r3]
  str r4, [r0, r3]
 800100c:	50c4      	str	r4, [r0, r3]
  adds r3, r3, #4
 800100e:	3304      	adds	r3, #4

08001010 <LoopCopyDataInit>:

LoopCopyDataInit:
  adds r4, r0, r3
 8001010:	18c4      	adds	r4, r0, r3
  cmp r4, r1
 8001012:	428c      	cmp	r4, r1
  bcc CopyDataInit
 8001014:	d3f9      	bcc.n	800100a <CopyDataInit>
  
/* Zero fill the bss segment. */
  ldr r2, =_sbss
 8001016:	4a10      	ldr	r2, [pc, #64]	; (8001058 <LoopForever+0x2a>)
  ldr r4, =_ebss
 8001018:	4c10      	ldr	r4, [pc, #64]	; (800105c <LoopForever+0x2e>)
  movs r3, #0
 800101a:	2300      	movs	r3, #0
  b LoopFillZerobss
 800101c:	e001      	b.n	8001022 <LoopFillZerobss>

0800101e <FillZerobss>:

FillZerobss:
  str  r3, [r2]
 800101e:	6013      	str	r3, [r2, #0]
  adds r2, r2, #4
 8001020:	3204      	adds	r2, #4

08001022 <LoopFillZerobss>:

LoopFillZerobss:
  cmp r2, r4
 8001022:	42a2      	cmp	r2, r4
  bcc FillZerobss
 8001024:	d3fb      	bcc.n	800101e <FillZerobss>

/* Call static constructors */
    bl __libc_init_array
 8001026:	f000 ff0b 	bl	8001e40 <__libc_init_array>
/* Call the application's entry point.*/
  bl  main
 800102a:	f7ff fcd3 	bl	80009d4 <main>

0800102e <LoopForever>:

LoopForever:
    b LoopForever
 800102e:	e7fe      	b.n	800102e <LoopForever>
   ldr   r0, =_estack
 8001030:	20000800 	.word	0x20000800
    LDR R0,=0x00000004
 8001034:	00000004 	.word	0x00000004
    LDR R2,=0x1F
 8001038:	0000001f 	.word	0x0000001f
    LDR R0,=0x40021034
 800103c:	40021034 	.word	0x40021034
    LDR R1,=0x00000001
 8001040:	00000001 	.word	0x00000001
    LDR R0,=0x40010000
 8001044:	40010000 	.word	0x40010000
    LDR R1,=0x00000000
 8001048:	00000000 	.word	0x00000000
  ldr r0, =_sdata
 800104c:	20000000 	.word	0x20000000
  ldr r1, =_edata
 8001050:	20000008 	.word	0x20000008
  ldr r2, =_sidata
 8001054:	08001edc 	.word	0x08001edc
  ldr r2, =_sbss
 8001058:	20000008 	.word	0x20000008
  ldr r4, =_ebss
 800105c:	20000028 	.word	0x20000028

08001060 <ADC1_COMP_IRQHandler>:
 * @retval : None
*/
    .section  .text.Default_Handler,"ax",%progbits
Default_Handler:
Infinite_Loop:
  b  Infinite_Loop
 8001060:	e7fe      	b.n	8001060 <ADC1_COMP_IRQHandler>

08001062 <LL_ADC_IsEnabled>:
{
 8001062:	b580      	push	{r7, lr}
 8001064:	b082      	sub	sp, #8
 8001066:	af00      	add	r7, sp, #0
 8001068:	6078      	str	r0, [r7, #4]
  return (READ_BIT(ADCx->CR, ADC_CR_ADEN) == (ADC_CR_ADEN));
 800106a:	687b      	ldr	r3, [r7, #4]
 800106c:	689b      	ldr	r3, [r3, #8]
 800106e:	2201      	movs	r2, #1
 8001070:	4013      	ands	r3, r2
 8001072:	3b01      	subs	r3, #1
 8001074:	425a      	negs	r2, r3
 8001076:	4153      	adcs	r3, r2
 8001078:	b2db      	uxtb	r3, r3
}
 800107a:	0018      	movs	r0, r3
 800107c:	46bd      	mov	sp, r7
 800107e:	b002      	add	sp, #8
 8001080:	bd80      	pop	{r7, pc}
	...

08001084 <LL_ADC_Init>:
  * @retval An ErrorStatus enumeration value:
  *          - SUCCESS: ADC registers are initialized
  *          - ERROR: ADC registers are not initialized
  */
ErrorStatus LL_ADC_Init(ADC_TypeDef *ADCx, LL_ADC_InitTypeDef *ADC_InitStruct)
{
 8001084:	b580      	push	{r7, lr}
 8001086:	b084      	sub	sp, #16
 8001088:	af00      	add	r7, sp, #0
 800108a:	6078      	str	r0, [r7, #4]
 800108c:	6039      	str	r1, [r7, #0]
  ErrorStatus status = SUCCESS;
 800108e:	230f      	movs	r3, #15
 8001090:	18fb      	adds	r3, r7, r3
 8001092:	2200      	movs	r2, #0
 8001094:	701a      	strb	r2, [r3, #0]
  assert_param(IS_LL_ADC_DATA_ALIGN(ADC_InitStruct->DataAlignment));
  assert_param(IS_LL_ADC_LOW_POWER(ADC_InitStruct->LowPowerMode));

  /* Note: Hardware constraint (refer to description of this function):       */
  /*       ADC instance must be disabled.                                     */
  if (LL_ADC_IsEnabled(ADCx) == 0U)
 8001096:	687b      	ldr	r3, [r7, #4]
 8001098:	0018      	movs	r0, r3
 800109a:	f7ff ffe2 	bl	8001062 <LL_ADC_IsEnabled>
 800109e:	1e03      	subs	r3, r0, #0
 80010a0:	d118      	bne.n	80010d4 <LL_ADC_Init+0x50>
    /* Configuration of ADC hierarchical scope:                               */
    /*  - ADC instance                                                        */
    /*    - Set ADC data resolution                                           */
    /*    - Set ADC conversion data alignment                                 */
    /*    - Set ADC low power mode                                            */
    MODIFY_REG(ADCx->CFGR1,
 80010a2:	687b      	ldr	r3, [r7, #4]
 80010a4:	68db      	ldr	r3, [r3, #12]
 80010a6:	4a11      	ldr	r2, [pc, #68]	; (80010ec <LL_ADC_Init+0x68>)
 80010a8:	401a      	ands	r2, r3
 80010aa:	683b      	ldr	r3, [r7, #0]
 80010ac:	6859      	ldr	r1, [r3, #4]
 80010ae:	683b      	ldr	r3, [r7, #0]
 80010b0:	689b      	ldr	r3, [r3, #8]
 80010b2:	4319      	orrs	r1, r3
 80010b4:	683b      	ldr	r3, [r7, #0]
 80010b6:	68db      	ldr	r3, [r3, #12]
 80010b8:	430b      	orrs	r3, r1
 80010ba:	431a      	orrs	r2, r3
 80010bc:	687b      	ldr	r3, [r7, #4]
 80010be:	60da      	str	r2, [r3, #12]
               ADC_InitStruct->Resolution
               | ADC_InitStruct->DataAlignment
               | ADC_InitStruct->LowPowerMode
              );

    MODIFY_REG(ADCx->CFGR2,
 80010c0:	687b      	ldr	r3, [r7, #4]
 80010c2:	691b      	ldr	r3, [r3, #16]
 80010c4:	009b      	lsls	r3, r3, #2
 80010c6:	089a      	lsrs	r2, r3, #2
 80010c8:	683b      	ldr	r3, [r7, #0]
 80010ca:	681b      	ldr	r3, [r3, #0]
 80010cc:	431a      	orrs	r2, r3
 80010ce:	687b      	ldr	r3, [r7, #4]
 80010d0:	611a      	str	r2, [r3, #16]
 80010d2:	e003      	b.n	80010dc <LL_ADC_Init+0x58>
              );
  }
  else
  {
    /* Initialization error: ADC instance is not disabled. */
    status = ERROR;
 80010d4:	230f      	movs	r3, #15
 80010d6:	18fb      	adds	r3, r7, r3
 80010d8:	2201      	movs	r2, #1
 80010da:	701a      	strb	r2, [r3, #0]
  }
  return status;
 80010dc:	230f      	movs	r3, #15
 80010de:	18fb      	adds	r3, r7, r3
 80010e0:	781b      	ldrb	r3, [r3, #0]
}
 80010e2:	0018      	movs	r0, r3
 80010e4:	46bd      	mov	sp, r7
 80010e6:	b004      	add	sp, #16
 80010e8:	bd80      	pop	{r7, pc}
 80010ea:	46c0      	nop			; (mov r8, r8)
 80010ec:	ffff3fc7 	.word	0xffff3fc7

080010f0 <LL_ADC_REG_Init>:
  * @retval An ErrorStatus enumeration value:
  *          - SUCCESS: ADC registers are initialized
  *          - ERROR: ADC registers are not initialized
  */
ErrorStatus LL_ADC_REG_Init(ADC_TypeDef *ADCx, LL_ADC_REG_InitTypeDef *ADC_REG_InitStruct)
{
 80010f0:	b580      	push	{r7, lr}
 80010f2:	b084      	sub	sp, #16
 80010f4:	af00      	add	r7, sp, #0
 80010f6:	6078      	str	r0, [r7, #4]
 80010f8:	6039      	str	r1, [r7, #0]
  ErrorStatus status = SUCCESS;
 80010fa:	230f      	movs	r3, #15
 80010fc:	18fb      	adds	r3, r7, r3
 80010fe:	2200      	movs	r2, #0
 8001100:	701a      	strb	r2, [r3, #0]
  assert_param((ADC_REG_InitStruct->ContinuousMode == LL_ADC_REG_CONV_SINGLE)
               || (ADC_REG_InitStruct->SequencerDiscont == LL_ADC_REG_SEQ_DISCONT_DISABLE));

  /* Note: Hardware constraint (refer to description of this function):       */
  /*       ADC instance must be disabled.                                     */
  if (LL_ADC_IsEnabled(ADCx) == 0U)
 8001102:	687b      	ldr	r3, [r7, #4]
 8001104:	0018      	movs	r0, r3
 8001106:	f7ff ffac 	bl	8001062 <LL_ADC_IsEnabled>
 800110a:	1e03      	subs	r3, r0, #0
 800110c:	d115      	bne.n	800113a <LL_ADC_REG_Init+0x4a>
    /*    - Set ADC group regular conversion data transfer: no transfer or    */
    /*      transfer by DMA, and DMA requests mode                            */
    /*    - Set ADC group regular overrun behavior                            */
    /* Note: On this STM32 series, ADC trigger edge is set to value 0x0 by     */
    /*       setting of trigger source to SW start.                           */
    MODIFY_REG(ADCx->CFGR1,
 800110e:	687b      	ldr	r3, [r7, #4]
 8001110:	68db      	ldr	r3, [r3, #12]
 8001112:	4a0f      	ldr	r2, [pc, #60]	; (8001150 <LL_ADC_REG_Init+0x60>)
 8001114:	401a      	ands	r2, r3
 8001116:	683b      	ldr	r3, [r7, #0]
 8001118:	6819      	ldr	r1, [r3, #0]
 800111a:	683b      	ldr	r3, [r7, #0]
 800111c:	685b      	ldr	r3, [r3, #4]
 800111e:	4319      	orrs	r1, r3
 8001120:	683b      	ldr	r3, [r7, #0]
 8001122:	689b      	ldr	r3, [r3, #8]
 8001124:	4319      	orrs	r1, r3
 8001126:	683b      	ldr	r3, [r7, #0]
 8001128:	68db      	ldr	r3, [r3, #12]
 800112a:	4319      	orrs	r1, r3
 800112c:	683b      	ldr	r3, [r7, #0]
 800112e:	691b      	ldr	r3, [r3, #16]
 8001130:	430b      	orrs	r3, r1
 8001132:	431a      	orrs	r2, r3
 8001134:	687b      	ldr	r3, [r7, #4]
 8001136:	60da      	str	r2, [r3, #12]
 8001138:	e003      	b.n	8001142 <LL_ADC_REG_Init+0x52>

  }
  else
  {
    /* Initialization error: ADC instance is not disabled. */
    status = ERROR;
 800113a:	230f      	movs	r3, #15
 800113c:	18fb      	adds	r3, r7, r3
 800113e:	2201      	movs	r2, #1
 8001140:	701a      	strb	r2, [r3, #0]
  }
  return status;
 8001142:	230f      	movs	r3, #15
 8001144:	18fb      	adds	r3, r7, r3
 8001146:	781b      	ldrb	r3, [r3, #0]
}
 8001148:	0018      	movs	r0, r3
 800114a:	46bd      	mov	sp, r7
 800114c:	b004      	add	sp, #16
 800114e:	bd80      	pop	{r7, pc}
 8001150:	fffec23c 	.word	0xfffec23c

08001154 <LL_GPIO_SetPinMode>:
{
 8001154:	b580      	push	{r7, lr}
 8001156:	b084      	sub	sp, #16
 8001158:	af00      	add	r7, sp, #0
 800115a:	60f8      	str	r0, [r7, #12]
 800115c:	60b9      	str	r1, [r7, #8]
 800115e:	607a      	str	r2, [r7, #4]
  MODIFY_REG(GPIOx->MODER, ((Pin * Pin) * GPIO_MODER_MODE0), ((Pin * Pin) * Mode));
 8001160:	68fb      	ldr	r3, [r7, #12]
 8001162:	6819      	ldr	r1, [r3, #0]
 8001164:	68bb      	ldr	r3, [r7, #8]
 8001166:	435b      	muls	r3, r3
 8001168:	001a      	movs	r2, r3
 800116a:	0013      	movs	r3, r2
 800116c:	005b      	lsls	r3, r3, #1
 800116e:	189b      	adds	r3, r3, r2
 8001170:	43db      	mvns	r3, r3
 8001172:	400b      	ands	r3, r1
 8001174:	001a      	movs	r2, r3
 8001176:	68bb      	ldr	r3, [r7, #8]
 8001178:	435b      	muls	r3, r3
 800117a:	6879      	ldr	r1, [r7, #4]
 800117c:	434b      	muls	r3, r1
 800117e:	431a      	orrs	r2, r3
 8001180:	68fb      	ldr	r3, [r7, #12]
 8001182:	601a      	str	r2, [r3, #0]
}
 8001184:	46c0      	nop			; (mov r8, r8)
 8001186:	46bd      	mov	sp, r7
 8001188:	b004      	add	sp, #16
 800118a:	bd80      	pop	{r7, pc}

0800118c <LL_GPIO_SetPinOutputType>:
{
 800118c:	b580      	push	{r7, lr}
 800118e:	b084      	sub	sp, #16
 8001190:	af00      	add	r7, sp, #0
 8001192:	60f8      	str	r0, [r7, #12]
 8001194:	60b9      	str	r1, [r7, #8]
 8001196:	607a      	str	r2, [r7, #4]
  MODIFY_REG(GPIOx->OTYPER, PinMask, (PinMask * OutputType));
 8001198:	68fb      	ldr	r3, [r7, #12]
 800119a:	685b      	ldr	r3, [r3, #4]
 800119c:	68ba      	ldr	r2, [r7, #8]
 800119e:	43d2      	mvns	r2, r2
 80011a0:	401a      	ands	r2, r3
 80011a2:	68bb      	ldr	r3, [r7, #8]
 80011a4:	6879      	ldr	r1, [r7, #4]
 80011a6:	434b      	muls	r3, r1
 80011a8:	431a      	orrs	r2, r3
 80011aa:	68fb      	ldr	r3, [r7, #12]
 80011ac:	605a      	str	r2, [r3, #4]
}
 80011ae:	46c0      	nop			; (mov r8, r8)
 80011b0:	46bd      	mov	sp, r7
 80011b2:	b004      	add	sp, #16
 80011b4:	bd80      	pop	{r7, pc}

080011b6 <LL_GPIO_SetPinSpeed>:
{
 80011b6:	b580      	push	{r7, lr}
 80011b8:	b084      	sub	sp, #16
 80011ba:	af00      	add	r7, sp, #0
 80011bc:	60f8      	str	r0, [r7, #12]
 80011be:	60b9      	str	r1, [r7, #8]
 80011c0:	607a      	str	r2, [r7, #4]
  MODIFY_REG(GPIOx->OSPEEDR, ((Pin * Pin) * GPIO_OSPEEDER_OSPEED0), ((Pin * Pin) * Speed));
 80011c2:	68fb      	ldr	r3, [r7, #12]
 80011c4:	6899      	ldr	r1, [r3, #8]
 80011c6:	68bb      	ldr	r3, [r7, #8]
 80011c8:	435b      	muls	r3, r3
 80011ca:	001a      	movs	r2, r3
 80011cc:	0013      	movs	r3, r2
 80011ce:	005b      	lsls	r3, r3, #1
 80011d0:	189b      	adds	r3, r3, r2
 80011d2:	43db      	mvns	r3, r3
 80011d4:	400b      	ands	r3, r1
 80011d6:	001a      	movs	r2, r3
 80011d8:	68bb      	ldr	r3, [r7, #8]
 80011da:	435b      	muls	r3, r3
 80011dc:	6879      	ldr	r1, [r7, #4]
 80011de:	434b      	muls	r3, r1
 80011e0:	431a      	orrs	r2, r3
 80011e2:	68fb      	ldr	r3, [r7, #12]
 80011e4:	609a      	str	r2, [r3, #8]
}
 80011e6:	46c0      	nop			; (mov r8, r8)
 80011e8:	46bd      	mov	sp, r7
 80011ea:	b004      	add	sp, #16
 80011ec:	bd80      	pop	{r7, pc}

080011ee <LL_GPIO_SetPinPull>:
{
 80011ee:	b580      	push	{r7, lr}
 80011f0:	b084      	sub	sp, #16
 80011f2:	af00      	add	r7, sp, #0
 80011f4:	60f8      	str	r0, [r7, #12]
 80011f6:	60b9      	str	r1, [r7, #8]
 80011f8:	607a      	str	r2, [r7, #4]
  MODIFY_REG(GPIOx->PUPDR, ((Pin * Pin) * GPIO_PUPDR_PUPD0), ((Pin * Pin) * Pull));
 80011fa:	68fb      	ldr	r3, [r7, #12]
 80011fc:	68d9      	ldr	r1, [r3, #12]
 80011fe:	68bb      	ldr	r3, [r7, #8]
 8001200:	435b      	muls	r3, r3
 8001202:	001a      	movs	r2, r3
 8001204:	0013      	movs	r3, r2
 8001206:	005b      	lsls	r3, r3, #1
 8001208:	189b      	adds	r3, r3, r2
 800120a:	43db      	mvns	r3, r3
 800120c:	400b      	ands	r3, r1
 800120e:	001a      	movs	r2, r3
 8001210:	68bb      	ldr	r3, [r7, #8]
 8001212:	435b      	muls	r3, r3
 8001214:	6879      	ldr	r1, [r7, #4]
 8001216:	434b      	muls	r3, r1
 8001218:	431a      	orrs	r2, r3
 800121a:	68fb      	ldr	r3, [r7, #12]
 800121c:	60da      	str	r2, [r3, #12]
}
 800121e:	46c0      	nop			; (mov r8, r8)
 8001220:	46bd      	mov	sp, r7
 8001222:	b004      	add	sp, #16
 8001224:	bd80      	pop	{r7, pc}

08001226 <LL_GPIO_SetAFPin_0_7>:
{
 8001226:	b580      	push	{r7, lr}
 8001228:	b084      	sub	sp, #16
 800122a:	af00      	add	r7, sp, #0
 800122c:	60f8      	str	r0, [r7, #12]
 800122e:	60b9      	str	r1, [r7, #8]
 8001230:	607a      	str	r2, [r7, #4]
  MODIFY_REG(GPIOx->AFR[0], ((((Pin * Pin) * Pin) * Pin) * GPIO_AFRL_AFSEL0),
 8001232:	68fb      	ldr	r3, [r7, #12]
 8001234:	6a19      	ldr	r1, [r3, #32]
 8001236:	68bb      	ldr	r3, [r7, #8]
 8001238:	435b      	muls	r3, r3
 800123a:	68ba      	ldr	r2, [r7, #8]
 800123c:	4353      	muls	r3, r2
 800123e:	68ba      	ldr	r2, [r7, #8]
 8001240:	435a      	muls	r2, r3
 8001242:	0013      	movs	r3, r2
 8001244:	011b      	lsls	r3, r3, #4
 8001246:	1a9b      	subs	r3, r3, r2
 8001248:	43db      	mvns	r3, r3
 800124a:	400b      	ands	r3, r1
 800124c:	001a      	movs	r2, r3
 800124e:	68bb      	ldr	r3, [r7, #8]
 8001250:	435b      	muls	r3, r3
 8001252:	68b9      	ldr	r1, [r7, #8]
 8001254:	434b      	muls	r3, r1
 8001256:	68b9      	ldr	r1, [r7, #8]
 8001258:	434b      	muls	r3, r1
 800125a:	6879      	ldr	r1, [r7, #4]
 800125c:	434b      	muls	r3, r1
 800125e:	431a      	orrs	r2, r3
 8001260:	68fb      	ldr	r3, [r7, #12]
 8001262:	621a      	str	r2, [r3, #32]
}
 8001264:	46c0      	nop			; (mov r8, r8)
 8001266:	46bd      	mov	sp, r7
 8001268:	b004      	add	sp, #16
 800126a:	bd80      	pop	{r7, pc}

0800126c <LL_GPIO_SetAFPin_8_15>:
{
 800126c:	b580      	push	{r7, lr}
 800126e:	b084      	sub	sp, #16
 8001270:	af00      	add	r7, sp, #0
 8001272:	60f8      	str	r0, [r7, #12]
 8001274:	60b9      	str	r1, [r7, #8]
 8001276:	607a      	str	r2, [r7, #4]
  MODIFY_REG(GPIOx->AFR[1], (((((Pin >> 8U) * (Pin >> 8U)) * (Pin >> 8U)) * (Pin >> 8U)) * GPIO_AFRH_AFSEL8),
 8001278:	68fb      	ldr	r3, [r7, #12]
 800127a:	6a59      	ldr	r1, [r3, #36]	; 0x24
 800127c:	68bb      	ldr	r3, [r7, #8]
 800127e:	0a1b      	lsrs	r3, r3, #8
 8001280:	68ba      	ldr	r2, [r7, #8]
 8001282:	0a12      	lsrs	r2, r2, #8
 8001284:	4353      	muls	r3, r2
 8001286:	68ba      	ldr	r2, [r7, #8]
 8001288:	0a12      	lsrs	r2, r2, #8
 800128a:	4353      	muls	r3, r2
 800128c:	68ba      	ldr	r2, [r7, #8]
 800128e:	0a12      	lsrs	r2, r2, #8
 8001290:	435a      	muls	r2, r3
 8001292:	0013      	movs	r3, r2
 8001294:	011b      	lsls	r3, r3, #4
 8001296:	1a9b      	subs	r3, r3, r2
 8001298:	43db      	mvns	r3, r3
 800129a:	400b      	ands	r3, r1
 800129c:	001a      	movs	r2, r3
 800129e:	68bb      	ldr	r3, [r7, #8]
 80012a0:	0a1b      	lsrs	r3, r3, #8
 80012a2:	68b9      	ldr	r1, [r7, #8]
 80012a4:	0a09      	lsrs	r1, r1, #8
 80012a6:	434b      	muls	r3, r1
 80012a8:	68b9      	ldr	r1, [r7, #8]
 80012aa:	0a09      	lsrs	r1, r1, #8
 80012ac:	434b      	muls	r3, r1
 80012ae:	68b9      	ldr	r1, [r7, #8]
 80012b0:	0a09      	lsrs	r1, r1, #8
 80012b2:	434b      	muls	r3, r1
 80012b4:	6879      	ldr	r1, [r7, #4]
 80012b6:	434b      	muls	r3, r1
 80012b8:	431a      	orrs	r2, r3
 80012ba:	68fb      	ldr	r3, [r7, #12]
 80012bc:	625a      	str	r2, [r3, #36]	; 0x24
}
 80012be:	46c0      	nop			; (mov r8, r8)
 80012c0:	46bd      	mov	sp, r7
 80012c2:	b004      	add	sp, #16
 80012c4:	bd80      	pop	{r7, pc}

080012c6 <LL_GPIO_Init>:
  * @retval An ErrorStatus enumeration value:
  *          - SUCCESS: GPIO registers are initialized according to GPIO_InitStruct content
  *          - ERROR:   Not applicable
  */
ErrorStatus LL_GPIO_Init(GPIO_TypeDef *GPIOx, LL_GPIO_InitTypeDef *GPIO_InitStruct)
{
 80012c6:	b580      	push	{r7, lr}
 80012c8:	b084      	sub	sp, #16
 80012ca:	af00      	add	r7, sp, #0
 80012cc:	6078      	str	r0, [r7, #4]
 80012ce:	6039      	str	r1, [r7, #0]
  uint32_t pinpos     = 0x00000000U;
 80012d0:	2300      	movs	r3, #0
 80012d2:	60fb      	str	r3, [r7, #12]
  uint32_t currentpin = 0x00000000U;
 80012d4:	2300      	movs	r3, #0
 80012d6:	60bb      	str	r3, [r7, #8]
  /* ------------------------- Configure the port pins ---------------- */
  /* Initialize  pinpos on first pin set */
  /* pinpos = 0; useless as already done in default initialization */

  /* Configure the port pins */
  while (((GPIO_InitStruct->Pin) >> pinpos) != 0x00000000U)
 80012d8:	e048      	b.n	800136c <LL_GPIO_Init+0xa6>
  {
    /* Get current io position */
    currentpin = (GPIO_InitStruct->Pin) & (0x00000001U << pinpos);
 80012da:	683b      	ldr	r3, [r7, #0]
 80012dc:	681b      	ldr	r3, [r3, #0]
 80012de:	2101      	movs	r1, #1
 80012e0:	68fa      	ldr	r2, [r7, #12]
 80012e2:	4091      	lsls	r1, r2
 80012e4:	000a      	movs	r2, r1
 80012e6:	4013      	ands	r3, r2
 80012e8:	60bb      	str	r3, [r7, #8]

    if (currentpin)
 80012ea:	68bb      	ldr	r3, [r7, #8]
 80012ec:	2b00      	cmp	r3, #0
 80012ee:	d03a      	beq.n	8001366 <LL_GPIO_Init+0xa0>
    {
      if ((GPIO_InitStruct->Mode == LL_GPIO_MODE_OUTPUT) || (GPIO_InitStruct->Mode == LL_GPIO_MODE_ALTERNATE))
 80012f0:	683b      	ldr	r3, [r7, #0]
 80012f2:	685b      	ldr	r3, [r3, #4]
 80012f4:	2b01      	cmp	r3, #1
 80012f6:	d003      	beq.n	8001300 <LL_GPIO_Init+0x3a>
 80012f8:	683b      	ldr	r3, [r7, #0]
 80012fa:	685b      	ldr	r3, [r3, #4]
 80012fc:	2b02      	cmp	r3, #2
 80012fe:	d10e      	bne.n	800131e <LL_GPIO_Init+0x58>
      {
        /* Check Speed mode parameters */
        assert_param(IS_LL_GPIO_SPEED(GPIO_InitStruct->Speed));

        /* Speed mode configuration */
        LL_GPIO_SetPinSpeed(GPIOx, currentpin, GPIO_InitStruct->Speed);
 8001300:	683b      	ldr	r3, [r7, #0]
 8001302:	689a      	ldr	r2, [r3, #8]
 8001304:	68b9      	ldr	r1, [r7, #8]
 8001306:	687b      	ldr	r3, [r7, #4]
 8001308:	0018      	movs	r0, r3
 800130a:	f7ff ff54 	bl	80011b6 <LL_GPIO_SetPinSpeed>

        /* Check Output mode parameters */
        assert_param(IS_LL_GPIO_OUTPUT_TYPE(GPIO_InitStruct->OutputType));

        /* Output mode configuration*/
        LL_GPIO_SetPinOutputType(GPIOx, GPIO_InitStruct->Pin, GPIO_InitStruct->OutputType);
 800130e:	683b      	ldr	r3, [r7, #0]
 8001310:	6819      	ldr	r1, [r3, #0]
 8001312:	683b      	ldr	r3, [r7, #0]
 8001314:	68da      	ldr	r2, [r3, #12]
 8001316:	687b      	ldr	r3, [r7, #4]
 8001318:	0018      	movs	r0, r3
 800131a:	f7ff ff37 	bl	800118c <LL_GPIO_SetPinOutputType>
      }

      /* Pull-up Pull down resistor configuration*/
      LL_GPIO_SetPinPull(GPIOx, currentpin, GPIO_InitStruct->Pull);
 800131e:	683b      	ldr	r3, [r7, #0]
 8001320:	691a      	ldr	r2, [r3, #16]
 8001322:	68b9      	ldr	r1, [r7, #8]
 8001324:	687b      	ldr	r3, [r7, #4]
 8001326:	0018      	movs	r0, r3
 8001328:	f7ff ff61 	bl	80011ee <LL_GPIO_SetPinPull>

      if (GPIO_InitStruct->Mode == LL_GPIO_MODE_ALTERNATE)
 800132c:	683b      	ldr	r3, [r7, #0]
 800132e:	685b      	ldr	r3, [r3, #4]
 8001330:	2b02      	cmp	r3, #2
 8001332:	d111      	bne.n	8001358 <LL_GPIO_Init+0x92>
      {
        /* Check Alternate parameter */
        assert_param(IS_LL_GPIO_ALTERNATE(GPIO_InitStruct->Alternate));

        /* Speed mode configuration */
        if (currentpin < LL_GPIO_PIN_8)
 8001334:	68bb      	ldr	r3, [r7, #8]
 8001336:	2bff      	cmp	r3, #255	; 0xff
 8001338:	d807      	bhi.n	800134a <LL_GPIO_Init+0x84>
        {
          LL_GPIO_SetAFPin_0_7(GPIOx, currentpin, GPIO_InitStruct->Alternate);
 800133a:	683b      	ldr	r3, [r7, #0]
 800133c:	695a      	ldr	r2, [r3, #20]
 800133e:	68b9      	ldr	r1, [r7, #8]
 8001340:	687b      	ldr	r3, [r7, #4]
 8001342:	0018      	movs	r0, r3
 8001344:	f7ff ff6f 	bl	8001226 <LL_GPIO_SetAFPin_0_7>
 8001348:	e006      	b.n	8001358 <LL_GPIO_Init+0x92>
        }
        else
        {
          LL_GPIO_SetAFPin_8_15(GPIOx, currentpin, GPIO_InitStruct->Alternate);
 800134a:	683b      	ldr	r3, [r7, #0]
 800134c:	695a      	ldr	r2, [r3, #20]
 800134e:	68b9      	ldr	r1, [r7, #8]
 8001350:	687b      	ldr	r3, [r7, #4]
 8001352:	0018      	movs	r0, r3
 8001354:	f7ff ff8a 	bl	800126c <LL_GPIO_SetAFPin_8_15>
        }
      }

      /* Pin Mode configuration */
      LL_GPIO_SetPinMode(GPIOx, currentpin, GPIO_InitStruct->Mode);
 8001358:	683b      	ldr	r3, [r7, #0]
 800135a:	685a      	ldr	r2, [r3, #4]
 800135c:	68b9      	ldr	r1, [r7, #8]
 800135e:	687b      	ldr	r3, [r7, #4]
 8001360:	0018      	movs	r0, r3
 8001362:	f7ff fef7 	bl	8001154 <LL_GPIO_SetPinMode>
    }
    pinpos++;
 8001366:	68fb      	ldr	r3, [r7, #12]
 8001368:	3301      	adds	r3, #1
 800136a:	60fb      	str	r3, [r7, #12]
  while (((GPIO_InitStruct->Pin) >> pinpos) != 0x00000000U)
 800136c:	683b      	ldr	r3, [r7, #0]
 800136e:	681a      	ldr	r2, [r3, #0]
 8001370:	68fb      	ldr	r3, [r7, #12]
 8001372:	40da      	lsrs	r2, r3
 8001374:	1e13      	subs	r3, r2, #0
 8001376:	d1b0      	bne.n	80012da <LL_GPIO_Init+0x14>
  }


  return (SUCCESS);
 8001378:	2300      	movs	r3, #0
}
 800137a:	0018      	movs	r0, r3
 800137c:	46bd      	mov	sp, r7
 800137e:	b004      	add	sp, #16
 8001380:	bd80      	pop	{r7, pc}
	...

08001384 <LL_RCC_HSI_IsReady>:
{
 8001384:	b580      	push	{r7, lr}
 8001386:	af00      	add	r7, sp, #0
  return ((READ_BIT(RCC->CR, RCC_CR_HSIRDY) == RCC_CR_HSIRDY) ? 1UL : 0UL);
 8001388:	4b05      	ldr	r3, [pc, #20]	; (80013a0 <LL_RCC_HSI_IsReady+0x1c>)
 800138a:	681b      	ldr	r3, [r3, #0]
 800138c:	2204      	movs	r2, #4
 800138e:	4013      	ands	r3, r2
 8001390:	2b04      	cmp	r3, #4
 8001392:	d101      	bne.n	8001398 <LL_RCC_HSI_IsReady+0x14>
 8001394:	2301      	movs	r3, #1
 8001396:	e000      	b.n	800139a <LL_RCC_HSI_IsReady+0x16>
 8001398:	2300      	movs	r3, #0
}
 800139a:	0018      	movs	r0, r3
 800139c:	46bd      	mov	sp, r7
 800139e:	bd80      	pop	{r7, pc}
 80013a0:	40021000 	.word	0x40021000

080013a4 <LL_RCC_LSE_IsReady>:
{
 80013a4:	b580      	push	{r7, lr}
 80013a6:	af00      	add	r7, sp, #0
  return ((READ_BIT(RCC->CSR, RCC_CSR_LSERDY) == RCC_CSR_LSERDY) ? 1UL : 0UL);
 80013a8:	4b07      	ldr	r3, [pc, #28]	; (80013c8 <LL_RCC_LSE_IsReady+0x24>)
 80013aa:	6d1a      	ldr	r2, [r3, #80]	; 0x50
 80013ac:	2380      	movs	r3, #128	; 0x80
 80013ae:	009b      	lsls	r3, r3, #2
 80013b0:	401a      	ands	r2, r3
 80013b2:	2380      	movs	r3, #128	; 0x80
 80013b4:	009b      	lsls	r3, r3, #2
 80013b6:	429a      	cmp	r2, r3
 80013b8:	d101      	bne.n	80013be <LL_RCC_LSE_IsReady+0x1a>
 80013ba:	2301      	movs	r3, #1
 80013bc:	e000      	b.n	80013c0 <LL_RCC_LSE_IsReady+0x1c>
 80013be:	2300      	movs	r3, #0
}
 80013c0:	0018      	movs	r0, r3
 80013c2:	46bd      	mov	sp, r7
 80013c4:	bd80      	pop	{r7, pc}
 80013c6:	46c0      	nop			; (mov r8, r8)
 80013c8:	40021000 	.word	0x40021000

080013cc <LL_RCC_MSI_GetRange>:
{
 80013cc:	b580      	push	{r7, lr}
 80013ce:	af00      	add	r7, sp, #0
  return (uint32_t)(READ_BIT(RCC->ICSCR, RCC_ICSCR_MSIRANGE));
 80013d0:	4b03      	ldr	r3, [pc, #12]	; (80013e0 <LL_RCC_MSI_GetRange+0x14>)
 80013d2:	685a      	ldr	r2, [r3, #4]
 80013d4:	23e0      	movs	r3, #224	; 0xe0
 80013d6:	021b      	lsls	r3, r3, #8
 80013d8:	4013      	ands	r3, r2
}
 80013da:	0018      	movs	r0, r3
 80013dc:	46bd      	mov	sp, r7
 80013de:	bd80      	pop	{r7, pc}
 80013e0:	40021000 	.word	0x40021000

080013e4 <LL_RCC_GetSysClkSource>:
{
 80013e4:	b580      	push	{r7, lr}
 80013e6:	af00      	add	r7, sp, #0
  return (uint32_t)(READ_BIT(RCC->CFGR, RCC_CFGR_SWS));
 80013e8:	4b03      	ldr	r3, [pc, #12]	; (80013f8 <LL_RCC_GetSysClkSource+0x14>)
 80013ea:	68db      	ldr	r3, [r3, #12]
 80013ec:	220c      	movs	r2, #12
 80013ee:	4013      	ands	r3, r2
}
 80013f0:	0018      	movs	r0, r3
 80013f2:	46bd      	mov	sp, r7
 80013f4:	bd80      	pop	{r7, pc}
 80013f6:	46c0      	nop			; (mov r8, r8)
 80013f8:	40021000 	.word	0x40021000

080013fc <LL_RCC_GetAHBPrescaler>:
{
 80013fc:	b580      	push	{r7, lr}
 80013fe:	af00      	add	r7, sp, #0
  return (uint32_t)(READ_BIT(RCC->CFGR, RCC_CFGR_HPRE));
 8001400:	4b03      	ldr	r3, [pc, #12]	; (8001410 <LL_RCC_GetAHBPrescaler+0x14>)
 8001402:	68db      	ldr	r3, [r3, #12]
 8001404:	22f0      	movs	r2, #240	; 0xf0
 8001406:	4013      	ands	r3, r2
}
 8001408:	0018      	movs	r0, r3
 800140a:	46bd      	mov	sp, r7
 800140c:	bd80      	pop	{r7, pc}
 800140e:	46c0      	nop			; (mov r8, r8)
 8001410:	40021000 	.word	0x40021000

08001414 <LL_RCC_GetAPB1Prescaler>:
{
 8001414:	b580      	push	{r7, lr}
 8001416:	af00      	add	r7, sp, #0
  return (uint32_t)(READ_BIT(RCC->CFGR, RCC_CFGR_PPRE1));
 8001418:	4b03      	ldr	r3, [pc, #12]	; (8001428 <LL_RCC_GetAPB1Prescaler+0x14>)
 800141a:	68da      	ldr	r2, [r3, #12]
 800141c:	23e0      	movs	r3, #224	; 0xe0
 800141e:	00db      	lsls	r3, r3, #3
 8001420:	4013      	ands	r3, r2
}
 8001422:	0018      	movs	r0, r3
 8001424:	46bd      	mov	sp, r7
 8001426:	bd80      	pop	{r7, pc}
 8001428:	40021000 	.word	0x40021000

0800142c <LL_RCC_GetUSARTClockSource>:
{
 800142c:	b580      	push	{r7, lr}
 800142e:	b082      	sub	sp, #8
 8001430:	af00      	add	r7, sp, #0
 8001432:	6078      	str	r0, [r7, #4]
  return (uint32_t)(READ_BIT(RCC->CCIPR, USARTx) | (USARTx << 16U));
 8001434:	4b05      	ldr	r3, [pc, #20]	; (800144c <LL_RCC_GetUSARTClockSource+0x20>)
 8001436:	6cdb      	ldr	r3, [r3, #76]	; 0x4c
 8001438:	687a      	ldr	r2, [r7, #4]
 800143a:	401a      	ands	r2, r3
 800143c:	687b      	ldr	r3, [r7, #4]
 800143e:	041b      	lsls	r3, r3, #16
 8001440:	4313      	orrs	r3, r2
}
 8001442:	0018      	movs	r0, r3
 8001444:	46bd      	mov	sp, r7
 8001446:	b002      	add	sp, #8
 8001448:	bd80      	pop	{r7, pc}
 800144a:	46c0      	nop			; (mov r8, r8)
 800144c:	40021000 	.word	0x40021000

08001450 <LL_RCC_PLL_GetMainSource>:
  * @retval Returned value can be one of the following values:
  *         @arg @ref LL_RCC_PLLSOURCE_HSI
  *         @arg @ref LL_RCC_PLLSOURCE_HSE
  */
__STATIC_INLINE uint32_t LL_RCC_PLL_GetMainSource(void)
{
 8001450:	b580      	push	{r7, lr}
 8001452:	af00      	add	r7, sp, #0
  return (uint32_t)(READ_BIT(RCC->CFGR, RCC_CFGR_PLLSRC));
 8001454:	4b03      	ldr	r3, [pc, #12]	; (8001464 <LL_RCC_PLL_GetMainSource+0x14>)
 8001456:	68da      	ldr	r2, [r3, #12]
 8001458:	2380      	movs	r3, #128	; 0x80
 800145a:	025b      	lsls	r3, r3, #9
 800145c:	4013      	ands	r3, r2
}
 800145e:	0018      	movs	r0, r3
 8001460:	46bd      	mov	sp, r7
 8001462:	bd80      	pop	{r7, pc}
 8001464:	40021000 	.word	0x40021000

08001468 <LL_RCC_PLL_GetMultiplicator>:
  *         @arg @ref LL_RCC_PLL_MUL_24
  *         @arg @ref LL_RCC_PLL_MUL_32
  *         @arg @ref LL_RCC_PLL_MUL_48
  */
__STATIC_INLINE uint32_t LL_RCC_PLL_GetMultiplicator(void)
{
 8001468:	b580      	push	{r7, lr}
 800146a:	af00      	add	r7, sp, #0
  return (uint32_t)(READ_BIT(RCC->CFGR, RCC_CFGR_PLLMUL));
 800146c:	4b03      	ldr	r3, [pc, #12]	; (800147c <LL_RCC_PLL_GetMultiplicator+0x14>)
 800146e:	68da      	ldr	r2, [r3, #12]
 8001470:	23f0      	movs	r3, #240	; 0xf0
 8001472:	039b      	lsls	r3, r3, #14
 8001474:	4013      	ands	r3, r2
}
 8001476:	0018      	movs	r0, r3
 8001478:	46bd      	mov	sp, r7
 800147a:	bd80      	pop	{r7, pc}
 800147c:	40021000 	.word	0x40021000

08001480 <LL_RCC_PLL_GetDivider>:
  *         @arg @ref LL_RCC_PLL_DIV_2
  *         @arg @ref LL_RCC_PLL_DIV_3
  *         @arg @ref LL_RCC_PLL_DIV_4
  */
__STATIC_INLINE uint32_t LL_RCC_PLL_GetDivider(void)
{
 8001480:	b580      	push	{r7, lr}
 8001482:	af00      	add	r7, sp, #0
  return (uint32_t)(READ_BIT(RCC->CFGR, RCC_CFGR_PLLDIV));
 8001484:	4b03      	ldr	r3, [pc, #12]	; (8001494 <LL_RCC_PLL_GetDivider+0x14>)
 8001486:	68da      	ldr	r2, [r3, #12]
 8001488:	23c0      	movs	r3, #192	; 0xc0
 800148a:	041b      	lsls	r3, r3, #16
 800148c:	4013      	ands	r3, r2
}
 800148e:	0018      	movs	r0, r3
 8001490:	46bd      	mov	sp, r7
 8001492:	bd80      	pop	{r7, pc}
 8001494:	40021000 	.word	0x40021000

08001498 <LL_RCC_IsActiveFlag_HSIDIV>:
  * @brief  Check if HSI Divider is enabled (it divides by 4)
  * @rmtoll CR        HSIDIVF        LL_RCC_IsActiveFlag_HSIDIV
  * @retval State of bit (1 or 0).
  */
__STATIC_INLINE uint32_t LL_RCC_IsActiveFlag_HSIDIV(void)
{
 8001498:	b580      	push	{r7, lr}
 800149a:	af00      	add	r7, sp, #0
  return ((READ_BIT(RCC->CR, RCC_CR_HSIDIVF) == RCC_CR_HSIDIVF) ? 1UL : 0UL);
 800149c:	4b05      	ldr	r3, [pc, #20]	; (80014b4 <LL_RCC_IsActiveFlag_HSIDIV+0x1c>)
 800149e:	681b      	ldr	r3, [r3, #0]
 80014a0:	2210      	movs	r2, #16
 80014a2:	4013      	ands	r3, r2
 80014a4:	2b10      	cmp	r3, #16
 80014a6:	d101      	bne.n	80014ac <LL_RCC_IsActiveFlag_HSIDIV+0x14>
 80014a8:	2301      	movs	r3, #1
 80014aa:	e000      	b.n	80014ae <LL_RCC_IsActiveFlag_HSIDIV+0x16>
 80014ac:	2300      	movs	r3, #0
}
 80014ae:	0018      	movs	r0, r3
 80014b0:	46bd      	mov	sp, r7
 80014b2:	bd80      	pop	{r7, pc}
 80014b4:	40021000 	.word	0x40021000

080014b8 <LL_RCC_GetUSARTClockFreq>:
  *         (*) value not defined in all devices.
  * @retval USART clock frequency (in Hz)
  *         @arg @ref LL_RCC_PERIPH_FREQUENCY_NO indicates that oscillator (HSI or LSE) is not ready
  */
uint32_t LL_RCC_GetUSARTClockFreq(uint32_t USARTxSource)
{
 80014b8:	b580      	push	{r7, lr}
 80014ba:	b084      	sub	sp, #16
 80014bc:	af00      	add	r7, sp, #0
 80014be:	6078      	str	r0, [r7, #4]
  uint32_t usart_frequency = LL_RCC_PERIPH_FREQUENCY_NO;
 80014c0:	2300      	movs	r3, #0
 80014c2:	60fb      	str	r3, [r7, #12]
    }
  }
#endif /* RCC_CCIPR_USART1SEL  */

#if defined(RCC_CCIPR_USART2SEL)
  if (USARTxSource == LL_RCC_USART2_CLKSOURCE)
 80014c4:	687b      	ldr	r3, [r7, #4]
 80014c6:	2b0c      	cmp	r3, #12
 80014c8:	d13c      	bne.n	8001544 <LL_RCC_GetUSARTClockFreq+0x8c>
  {
    /* USART2CLK clock frequency */
    switch (LL_RCC_GetUSARTClockSource(USARTxSource))
 80014ca:	687b      	ldr	r3, [r7, #4]
 80014cc:	0018      	movs	r0, r3
 80014ce:	f7ff ffad 	bl	800142c <LL_RCC_GetUSARTClockSource>
 80014d2:	0003      	movs	r3, r0
 80014d4:	4a1e      	ldr	r2, [pc, #120]	; (8001550 <LL_RCC_GetUSARTClockFreq+0x98>)
 80014d6:	4293      	cmp	r3, r2
 80014d8:	d01c      	beq.n	8001514 <LL_RCC_GetUSARTClockFreq+0x5c>
 80014da:	4a1d      	ldr	r2, [pc, #116]	; (8001550 <LL_RCC_GetUSARTClockFreq+0x98>)
 80014dc:	4293      	cmp	r3, r2
 80014de:	d821      	bhi.n	8001524 <LL_RCC_GetUSARTClockFreq+0x6c>
 80014e0:	4a1c      	ldr	r2, [pc, #112]	; (8001554 <LL_RCC_GetUSARTClockFreq+0x9c>)
 80014e2:	4293      	cmp	r3, r2
 80014e4:	d003      	beq.n	80014ee <LL_RCC_GetUSARTClockFreq+0x36>
 80014e6:	4a1c      	ldr	r2, [pc, #112]	; (8001558 <LL_RCC_GetUSARTClockFreq+0xa0>)
 80014e8:	4293      	cmp	r3, r2
 80014ea:	d005      	beq.n	80014f8 <LL_RCC_GetUSARTClockFreq+0x40>
 80014ec:	e01a      	b.n	8001524 <LL_RCC_GetUSARTClockFreq+0x6c>
    {
      case LL_RCC_USART2_CLKSOURCE_SYSCLK: /* USART2 Clock is System Clock */
        usart_frequency = RCC_GetSystemClockFreq();
 80014ee:	f000 f839 	bl	8001564 <RCC_GetSystemClockFreq>
 80014f2:	0003      	movs	r3, r0
 80014f4:	60fb      	str	r3, [r7, #12]
        break;
 80014f6:	e025      	b.n	8001544 <LL_RCC_GetUSARTClockFreq+0x8c>

      case LL_RCC_USART2_CLKSOURCE_HSI:    /* USART2 Clock is HSI Osc. */
        if (LL_RCC_HSI_IsReady() != 0U)
 80014f8:	f7ff ff44 	bl	8001384 <LL_RCC_HSI_IsReady>
 80014fc:	1e03      	subs	r3, r0, #0
 80014fe:	d01e      	beq.n	800153e <LL_RCC_GetUSARTClockFreq+0x86>
        {
          if (LL_RCC_IsActiveFlag_HSIDIV() != 0U)
 8001500:	f7ff ffca 	bl	8001498 <LL_RCC_IsActiveFlag_HSIDIV>
 8001504:	1e03      	subs	r3, r0, #0
 8001506:	d002      	beq.n	800150e <LL_RCC_GetUSARTClockFreq+0x56>
          {
            usart_frequency = (HSI_VALUE >> 2U);
 8001508:	4b14      	ldr	r3, [pc, #80]	; (800155c <LL_RCC_GetUSARTClockFreq+0xa4>)
 800150a:	60fb      	str	r3, [r7, #12]
          else
          {
            usart_frequency = HSI_VALUE;
          }
        }
        break;
 800150c:	e017      	b.n	800153e <LL_RCC_GetUSARTClockFreq+0x86>
            usart_frequency = HSI_VALUE;
 800150e:	4b14      	ldr	r3, [pc, #80]	; (8001560 <LL_RCC_GetUSARTClockFreq+0xa8>)
 8001510:	60fb      	str	r3, [r7, #12]
        break;
 8001512:	e014      	b.n	800153e <LL_RCC_GetUSARTClockFreq+0x86>

      case LL_RCC_USART2_CLKSOURCE_LSE:    /* USART2 Clock is LSE Osc. */
        if (LL_RCC_LSE_IsReady() != 0U)
 8001514:	f7ff ff46 	bl	80013a4 <LL_RCC_LSE_IsReady>
 8001518:	1e03      	subs	r3, r0, #0
 800151a:	d012      	beq.n	8001542 <LL_RCC_GetUSARTClockFreq+0x8a>
        {
          usart_frequency = LSE_VALUE;
 800151c:	2380      	movs	r3, #128	; 0x80
 800151e:	021b      	lsls	r3, r3, #8
 8001520:	60fb      	str	r3, [r7, #12]
        }
        break;
 8001522:	e00e      	b.n	8001542 <LL_RCC_GetUSARTClockFreq+0x8a>

      case LL_RCC_USART2_CLKSOURCE_PCLK1:  /* USART2 Clock is PCLK1 */
      default:
        usart_frequency = RCC_GetPCLK1ClockFreq(RCC_GetHCLKClockFreq(RCC_GetSystemClockFreq()));
 8001524:	f000 f81e 	bl	8001564 <RCC_GetSystemClockFreq>
 8001528:	0003      	movs	r3, r0
 800152a:	0018      	movs	r0, r3
 800152c:	f000 f85e 	bl	80015ec <RCC_GetHCLKClockFreq>
 8001530:	0003      	movs	r3, r0
 8001532:	0018      	movs	r0, r3
 8001534:	f000 f870 	bl	8001618 <RCC_GetPCLK1ClockFreq>
 8001538:	0003      	movs	r3, r0
 800153a:	60fb      	str	r3, [r7, #12]
        break;
 800153c:	e002      	b.n	8001544 <LL_RCC_GetUSARTClockFreq+0x8c>
        break;
 800153e:	46c0      	nop			; (mov r8, r8)
 8001540:	e000      	b.n	8001544 <LL_RCC_GetUSARTClockFreq+0x8c>
        break;
 8001542:	46c0      	nop			; (mov r8, r8)
    }
  }
#endif /* RCC_CCIPR_USART2SEL */

  return usart_frequency;
 8001544:	68fb      	ldr	r3, [r7, #12]
}
 8001546:	0018      	movs	r0, r3
 8001548:	46bd      	mov	sp, r7
 800154a:	b004      	add	sp, #16
 800154c:	bd80      	pop	{r7, pc}
 800154e:	46c0      	nop			; (mov r8, r8)
 8001550:	000c000c 	.word	0x000c000c
 8001554:	000c0004 	.word	0x000c0004
 8001558:	000c0008 	.word	0x000c0008
 800155c:	003d0900 	.word	0x003d0900
 8001560:	00f42400 	.word	0x00f42400

08001564 <RCC_GetSystemClockFreq>:
/**
  * @brief  Return SYSTEM clock frequency
  * @retval SYSTEM clock frequency (in Hz)
  */
static uint32_t RCC_GetSystemClockFreq(void)
{
 8001564:	b580      	push	{r7, lr}
 8001566:	b082      	sub	sp, #8
 8001568:	af00      	add	r7, sp, #0
  uint32_t frequency;

  /* Get SYSCLK source -------------------------------------------------------*/
  switch (LL_RCC_GetSysClkSource())
 800156a:	f7ff ff3b 	bl	80013e4 <LL_RCC_GetSysClkSource>
 800156e:	0003      	movs	r3, r0
 8001570:	2b0c      	cmp	r3, #12
 8001572:	d020      	beq.n	80015b6 <RCC_GetSystemClockFreq+0x52>
 8001574:	d824      	bhi.n	80015c0 <RCC_GetSystemClockFreq+0x5c>
 8001576:	2b08      	cmp	r3, #8
 8001578:	d01a      	beq.n	80015b0 <RCC_GetSystemClockFreq+0x4c>
 800157a:	d821      	bhi.n	80015c0 <RCC_GetSystemClockFreq+0x5c>
 800157c:	2b00      	cmp	r3, #0
 800157e:	d002      	beq.n	8001586 <RCC_GetSystemClockFreq+0x22>
 8001580:	2b04      	cmp	r3, #4
 8001582:	d00b      	beq.n	800159c <RCC_GetSystemClockFreq+0x38>
 8001584:	e01c      	b.n	80015c0 <RCC_GetSystemClockFreq+0x5c>
  {
    case LL_RCC_SYS_CLKSOURCE_STATUS_MSI:  /* MSI used as system clock source */
      frequency = __LL_RCC_CALC_MSI_FREQ(LL_RCC_MSI_GetRange());
 8001586:	f7ff ff21 	bl	80013cc <LL_RCC_MSI_GetRange>
 800158a:	0003      	movs	r3, r0
 800158c:	0b5b      	lsrs	r3, r3, #13
 800158e:	3301      	adds	r3, #1
 8001590:	2280      	movs	r2, #128	; 0x80
 8001592:	0212      	lsls	r2, r2, #8
 8001594:	409a      	lsls	r2, r3
 8001596:	0013      	movs	r3, r2
 8001598:	607b      	str	r3, [r7, #4]
      break;
 800159a:	e01c      	b.n	80015d6 <RCC_GetSystemClockFreq+0x72>

    case LL_RCC_SYS_CLKSOURCE_STATUS_HSI:  /* HSI used as system clock source */
      if (LL_RCC_IsActiveFlag_HSIDIV() != 0U)
 800159c:	f7ff ff7c 	bl	8001498 <LL_RCC_IsActiveFlag_HSIDIV>
 80015a0:	1e03      	subs	r3, r0, #0
 80015a2:	d002      	beq.n	80015aa <RCC_GetSystemClockFreq+0x46>
      {
        frequency = (HSI_VALUE >> 2U);
 80015a4:	4b0e      	ldr	r3, [pc, #56]	; (80015e0 <RCC_GetSystemClockFreq+0x7c>)
 80015a6:	607b      	str	r3, [r7, #4]
      }
      else
      {
        frequency = HSI_VALUE;
      }
      break;
 80015a8:	e015      	b.n	80015d6 <RCC_GetSystemClockFreq+0x72>
        frequency = HSI_VALUE;
 80015aa:	4b0e      	ldr	r3, [pc, #56]	; (80015e4 <RCC_GetSystemClockFreq+0x80>)
 80015ac:	607b      	str	r3, [r7, #4]
      break;
 80015ae:	e012      	b.n	80015d6 <RCC_GetSystemClockFreq+0x72>

    case LL_RCC_SYS_CLKSOURCE_STATUS_HSE:  /* HSE used as system clock source */
      frequency = HSE_VALUE;
 80015b0:	4b0d      	ldr	r3, [pc, #52]	; (80015e8 <RCC_GetSystemClockFreq+0x84>)
 80015b2:	607b      	str	r3, [r7, #4]
      break;
 80015b4:	e00f      	b.n	80015d6 <RCC_GetSystemClockFreq+0x72>

    case LL_RCC_SYS_CLKSOURCE_STATUS_PLL:  /* PLL used as system clock  source */
      frequency = RCC_PLL_GetFreqDomain_SYS();
 80015b6:	f000 f843 	bl	8001640 <RCC_PLL_GetFreqDomain_SYS>
 80015ba:	0003      	movs	r3, r0
 80015bc:	607b      	str	r3, [r7, #4]
      break;
 80015be:	e00a      	b.n	80015d6 <RCC_GetSystemClockFreq+0x72>

    default:
      frequency = __LL_RCC_CALC_MSI_FREQ(LL_RCC_MSI_GetRange());
 80015c0:	f7ff ff04 	bl	80013cc <LL_RCC_MSI_GetRange>
 80015c4:	0003      	movs	r3, r0
 80015c6:	0b5b      	lsrs	r3, r3, #13
 80015c8:	3301      	adds	r3, #1
 80015ca:	2280      	movs	r2, #128	; 0x80
 80015cc:	0212      	lsls	r2, r2, #8
 80015ce:	409a      	lsls	r2, r3
 80015d0:	0013      	movs	r3, r2
 80015d2:	607b      	str	r3, [r7, #4]
      break;
 80015d4:	46c0      	nop			; (mov r8, r8)
  }

  return frequency;
 80015d6:	687b      	ldr	r3, [r7, #4]
}
 80015d8:	0018      	movs	r0, r3
 80015da:	46bd      	mov	sp, r7
 80015dc:	b002      	add	sp, #8
 80015de:	bd80      	pop	{r7, pc}
 80015e0:	003d0900 	.word	0x003d0900
 80015e4:	00f42400 	.word	0x00f42400
 80015e8:	007a1200 	.word	0x007a1200

080015ec <RCC_GetHCLKClockFreq>:
  * @brief  Return HCLK clock frequency
  * @param  SYSCLK_Frequency SYSCLK clock frequency
  * @retval HCLK clock frequency (in Hz)
  */
static uint32_t RCC_GetHCLKClockFreq(uint32_t SYSCLK_Frequency)
{
 80015ec:	b580      	push	{r7, lr}
 80015ee:	b082      	sub	sp, #8
 80015f0:	af00      	add	r7, sp, #0
 80015f2:	6078      	str	r0, [r7, #4]
  /* HCLK clock frequency */
  return __LL_RCC_CALC_HCLK_FREQ(SYSCLK_Frequency, LL_RCC_GetAHBPrescaler());
 80015f4:	f7ff ff02 	bl	80013fc <LL_RCC_GetAHBPrescaler>
 80015f8:	0003      	movs	r3, r0
 80015fa:	091b      	lsrs	r3, r3, #4
 80015fc:	220f      	movs	r2, #15
 80015fe:	4013      	ands	r3, r2
 8001600:	4a04      	ldr	r2, [pc, #16]	; (8001614 <RCC_GetHCLKClockFreq+0x28>)
 8001602:	5cd3      	ldrb	r3, [r2, r3]
 8001604:	001a      	movs	r2, r3
 8001606:	687b      	ldr	r3, [r7, #4]
 8001608:	40d3      	lsrs	r3, r2
}
 800160a:	0018      	movs	r0, r3
 800160c:	46bd      	mov	sp, r7
 800160e:	b002      	add	sp, #8
 8001610:	bd80      	pop	{r7, pc}
 8001612:	46c0      	nop			; (mov r8, r8)
 8001614:	08001eb0 	.word	0x08001eb0

08001618 <RCC_GetPCLK1ClockFreq>:
  * @brief  Return PCLK1 clock frequency
  * @param  HCLK_Frequency HCLK clock frequency
  * @retval PCLK1 clock frequency (in Hz)
  */
static uint32_t RCC_GetPCLK1ClockFreq(uint32_t HCLK_Frequency)
{
 8001618:	b580      	push	{r7, lr}
 800161a:	b082      	sub	sp, #8
 800161c:	af00      	add	r7, sp, #0
 800161e:	6078      	str	r0, [r7, #4]
  /* PCLK1 clock frequency */
  return __LL_RCC_CALC_PCLK1_FREQ(HCLK_Frequency, LL_RCC_GetAPB1Prescaler());
 8001620:	f7ff fef8 	bl	8001414 <LL_RCC_GetAPB1Prescaler>
 8001624:	0003      	movs	r3, r0
 8001626:	0a1b      	lsrs	r3, r3, #8
 8001628:	4a04      	ldr	r2, [pc, #16]	; (800163c <RCC_GetPCLK1ClockFreq+0x24>)
 800162a:	5cd3      	ldrb	r3, [r2, r3]
 800162c:	001a      	movs	r2, r3
 800162e:	687b      	ldr	r3, [r7, #4]
 8001630:	40d3      	lsrs	r3, r2
}
 8001632:	0018      	movs	r0, r3
 8001634:	46bd      	mov	sp, r7
 8001636:	b002      	add	sp, #8
 8001638:	bd80      	pop	{r7, pc}
 800163a:	46c0      	nop			; (mov r8, r8)
 800163c:	08001ec0 	.word	0x08001ec0

08001640 <RCC_PLL_GetFreqDomain_SYS>:
/**
  * @brief  Return PLL clock frequency used for system domain
  * @retval PLL clock frequency (in Hz)
  */
static uint32_t RCC_PLL_GetFreqDomain_SYS(void)
{
 8001640:	b590      	push	{r4, r7, lr}
 8001642:	b083      	sub	sp, #12
 8001644:	af00      	add	r7, sp, #0
  uint32_t pllinputfreq, pllsource;

  /* PLL_VCO = (HSE_VALUE or HSI_VALUE / PLL divider) * PLL Multiplicator */

  /* Get PLL source */
  pllsource = LL_RCC_PLL_GetMainSource();
 8001646:	f7ff ff03 	bl	8001450 <LL_RCC_PLL_GetMainSource>
 800164a:	0003      	movs	r3, r0
 800164c:	603b      	str	r3, [r7, #0]

  switch (pllsource)
 800164e:	683b      	ldr	r3, [r7, #0]
 8001650:	2b00      	cmp	r3, #0
 8001652:	d109      	bne.n	8001668 <RCC_PLL_GetFreqDomain_SYS+0x28>
  {
    case LL_RCC_PLLSOURCE_HSI:       /* HSI used as PLL clock source */
      if (LL_RCC_IsActiveFlag_HSIDIV() != 0U)
 8001654:	f7ff ff20 	bl	8001498 <LL_RCC_IsActiveFlag_HSIDIV>
 8001658:	1e03      	subs	r3, r0, #0
 800165a:	d002      	beq.n	8001662 <RCC_PLL_GetFreqDomain_SYS+0x22>
      {
        pllinputfreq = (HSI_VALUE >> 2U);
 800165c:	4b10      	ldr	r3, [pc, #64]	; (80016a0 <RCC_PLL_GetFreqDomain_SYS+0x60>)
 800165e:	607b      	str	r3, [r7, #4]
      }
      else
      {
        pllinputfreq = HSI_VALUE;
      }
      break;
 8001660:	e005      	b.n	800166e <RCC_PLL_GetFreqDomain_SYS+0x2e>
        pllinputfreq = HSI_VALUE;
 8001662:	4b10      	ldr	r3, [pc, #64]	; (80016a4 <RCC_PLL_GetFreqDomain_SYS+0x64>)
 8001664:	607b      	str	r3, [r7, #4]
      break;
 8001666:	e002      	b.n	800166e <RCC_PLL_GetFreqDomain_SYS+0x2e>

    default:       /* HSE used as PLL clock source */
      pllinputfreq = HSE_VALUE;
 8001668:	4b0f      	ldr	r3, [pc, #60]	; (80016a8 <RCC_PLL_GetFreqDomain_SYS+0x68>)
 800166a:	607b      	str	r3, [r7, #4]
      break;
 800166c:	46c0      	nop			; (mov r8, r8)
  }
  return __LL_RCC_CALC_PLLCLK_FREQ(pllinputfreq, LL_RCC_PLL_GetMultiplicator(), LL_RCC_PLL_GetDivider());
 800166e:	f7ff fefb 	bl	8001468 <LL_RCC_PLL_GetMultiplicator>
 8001672:	0003      	movs	r3, r0
 8001674:	0c9b      	lsrs	r3, r3, #18
 8001676:	4a0d      	ldr	r2, [pc, #52]	; (80016ac <RCC_PLL_GetFreqDomain_SYS+0x6c>)
 8001678:	5cd3      	ldrb	r3, [r2, r3]
 800167a:	001a      	movs	r2, r3
 800167c:	687b      	ldr	r3, [r7, #4]
 800167e:	4353      	muls	r3, r2
 8001680:	001c      	movs	r4, r3
 8001682:	f7ff fefd 	bl	8001480 <LL_RCC_PLL_GetDivider>
 8001686:	0003      	movs	r3, r0
 8001688:	0d9b      	lsrs	r3, r3, #22
 800168a:	3301      	adds	r3, #1
 800168c:	0019      	movs	r1, r3
 800168e:	0020      	movs	r0, r4
 8001690:	f7fe fd3a 	bl	8000108 <__udivsi3>
 8001694:	0003      	movs	r3, r0
}
 8001696:	0018      	movs	r0, r3
 8001698:	46bd      	mov	sp, r7
 800169a:	b003      	add	sp, #12
 800169c:	bd90      	pop	{r4, r7, pc}
 800169e:	46c0      	nop			; (mov r8, r8)
 80016a0:	003d0900 	.word	0x003d0900
 80016a4:	00f42400 	.word	0x00f42400
 80016a8:	007a1200 	.word	0x007a1200
 80016ac:	08001ec8 	.word	0x08001ec8

080016b0 <LL_SPI_IsEnabled>:
{
 80016b0:	b580      	push	{r7, lr}
 80016b2:	b082      	sub	sp, #8
 80016b4:	af00      	add	r7, sp, #0
 80016b6:	6078      	str	r0, [r7, #4]
  return ((READ_BIT(SPIx->CR1, SPI_CR1_SPE) == (SPI_CR1_SPE)) ? 1UL : 0UL);
 80016b8:	687b      	ldr	r3, [r7, #4]
 80016ba:	681b      	ldr	r3, [r3, #0]
 80016bc:	2240      	movs	r2, #64	; 0x40
 80016be:	4013      	ands	r3, r2
 80016c0:	2b40      	cmp	r3, #64	; 0x40
 80016c2:	d101      	bne.n	80016c8 <LL_SPI_IsEnabled+0x18>
 80016c4:	2301      	movs	r3, #1
 80016c6:	e000      	b.n	80016ca <LL_SPI_IsEnabled+0x1a>
 80016c8:	2300      	movs	r3, #0
}
 80016ca:	0018      	movs	r0, r3
 80016cc:	46bd      	mov	sp, r7
 80016ce:	b002      	add	sp, #8
 80016d0:	bd80      	pop	{r7, pc}

080016d2 <LL_SPI_SetCRCPolynomial>:
  * @param  SPIx SPI Instance
  * @param  CRCPoly This parameter must be a number between Min_Data = 0x00 and Max_Data = 0xFFFF
  * @retval None
  */
__STATIC_INLINE void LL_SPI_SetCRCPolynomial(SPI_TypeDef *SPIx, uint32_t CRCPoly)
{
 80016d2:	b580      	push	{r7, lr}
 80016d4:	b082      	sub	sp, #8
 80016d6:	af00      	add	r7, sp, #0
 80016d8:	6078      	str	r0, [r7, #4]
 80016da:	6039      	str	r1, [r7, #0]
  WRITE_REG(SPIx->CRCPR, (uint16_t)CRCPoly);
 80016dc:	683b      	ldr	r3, [r7, #0]
 80016de:	b29b      	uxth	r3, r3
 80016e0:	001a      	movs	r2, r3
 80016e2:	687b      	ldr	r3, [r7, #4]
 80016e4:	611a      	str	r2, [r3, #16]
}
 80016e6:	46c0      	nop			; (mov r8, r8)
 80016e8:	46bd      	mov	sp, r7
 80016ea:	b002      	add	sp, #8
 80016ec:	bd80      	pop	{r7, pc}
	...

080016f0 <LL_SPI_Init>:
  * @param  SPIx SPI Instance
  * @param  SPI_InitStruct pointer to a @ref LL_SPI_InitTypeDef structure
  * @retval An ErrorStatus enumeration value. (Return always SUCCESS)
  */
ErrorStatus LL_SPI_Init(SPI_TypeDef *SPIx, LL_SPI_InitTypeDef *SPI_InitStruct)
{
 80016f0:	b580      	push	{r7, lr}
 80016f2:	b084      	sub	sp, #16
 80016f4:	af00      	add	r7, sp, #0
 80016f6:	6078      	str	r0, [r7, #4]
 80016f8:	6039      	str	r1, [r7, #0]
  ErrorStatus status = ERROR;
 80016fa:	230f      	movs	r3, #15
 80016fc:	18fb      	adds	r3, r7, r3
 80016fe:	2201      	movs	r2, #1
 8001700:	701a      	strb	r2, [r3, #0]
  assert_param(IS_LL_SPI_NSS(SPI_InitStruct->NSS));
  assert_param(IS_LL_SPI_BAUDRATE(SPI_InitStruct->BaudRate));
  assert_param(IS_LL_SPI_BITORDER(SPI_InitStruct->BitOrder));
  assert_param(IS_LL_SPI_CRCCALCULATION(SPI_InitStruct->CRCCalculation));

  if (LL_SPI_IsEnabled(SPIx) == 0x00000000U)
 8001702:	687b      	ldr	r3, [r7, #4]
 8001704:	0018      	movs	r0, r3
 8001706:	f7ff ffd3 	bl	80016b0 <LL_SPI_IsEnabled>
 800170a:	1e03      	subs	r3, r0, #0
 800170c:	d13c      	bne.n	8001788 <LL_SPI_Init+0x98>
     * - NSS management:     SPI_CR1_SSM bit
     * - BaudRate prescaler: SPI_CR1_BR[2:0] bits
     * - BitOrder:           SPI_CR1_LSBFIRST bit
     * - CRCCalculation:     SPI_CR1_CRCEN bit
     */
    MODIFY_REG(SPIx->CR1,
 800170e:	687b      	ldr	r3, [r7, #4]
 8001710:	681b      	ldr	r3, [r3, #0]
 8001712:	4a21      	ldr	r2, [pc, #132]	; (8001798 <LL_SPI_Init+0xa8>)
 8001714:	401a      	ands	r2, r3
 8001716:	683b      	ldr	r3, [r7, #0]
 8001718:	6819      	ldr	r1, [r3, #0]
 800171a:	683b      	ldr	r3, [r7, #0]
 800171c:	685b      	ldr	r3, [r3, #4]
 800171e:	4319      	orrs	r1, r3
 8001720:	683b      	ldr	r3, [r7, #0]
 8001722:	689b      	ldr	r3, [r3, #8]
 8001724:	4319      	orrs	r1, r3
 8001726:	683b      	ldr	r3, [r7, #0]
 8001728:	68db      	ldr	r3, [r3, #12]
 800172a:	4319      	orrs	r1, r3
 800172c:	683b      	ldr	r3, [r7, #0]
 800172e:	691b      	ldr	r3, [r3, #16]
 8001730:	4319      	orrs	r1, r3
 8001732:	683b      	ldr	r3, [r7, #0]
 8001734:	695b      	ldr	r3, [r3, #20]
 8001736:	4319      	orrs	r1, r3
 8001738:	683b      	ldr	r3, [r7, #0]
 800173a:	699b      	ldr	r3, [r3, #24]
 800173c:	4319      	orrs	r1, r3
 800173e:	683b      	ldr	r3, [r7, #0]
 8001740:	69db      	ldr	r3, [r3, #28]
 8001742:	4319      	orrs	r1, r3
 8001744:	683b      	ldr	r3, [r7, #0]
 8001746:	6a1b      	ldr	r3, [r3, #32]
 8001748:	430b      	orrs	r3, r1
 800174a:	431a      	orrs	r2, r3
 800174c:	687b      	ldr	r3, [r7, #4]
 800174e:	601a      	str	r2, [r3, #0]

    /*---------------------------- SPIx CR2 Configuration ------------------------
     * Configure SPIx CR2 with parameters:
     * - NSS management:     SSOE bit
     */
    MODIFY_REG(SPIx->CR2, SPI_CR2_SSOE, (SPI_InitStruct->NSS >> 16U));
 8001750:	687b      	ldr	r3, [r7, #4]
 8001752:	685b      	ldr	r3, [r3, #4]
 8001754:	2204      	movs	r2, #4
 8001756:	4393      	bics	r3, r2
 8001758:	001a      	movs	r2, r3
 800175a:	683b      	ldr	r3, [r7, #0]
 800175c:	695b      	ldr	r3, [r3, #20]
 800175e:	0c1b      	lsrs	r3, r3, #16
 8001760:	431a      	orrs	r2, r3
 8001762:	687b      	ldr	r3, [r7, #4]
 8001764:	605a      	str	r2, [r3, #4]

    /*---------------------------- SPIx CRCPR Configuration ----------------------
     * Configure SPIx CRCPR with parameters:
     * - CRCPoly:            CRCPOLY[15:0] bits
     */
    if (SPI_InitStruct->CRCCalculation == LL_SPI_CRCCALCULATION_ENABLE)
 8001766:	683b      	ldr	r3, [r7, #0]
 8001768:	6a1a      	ldr	r2, [r3, #32]
 800176a:	2380      	movs	r3, #128	; 0x80
 800176c:	019b      	lsls	r3, r3, #6
 800176e:	429a      	cmp	r2, r3
 8001770:	d106      	bne.n	8001780 <LL_SPI_Init+0x90>
    {
      assert_param(IS_LL_SPI_CRC_POLYNOMIAL(SPI_InitStruct->CRCPoly));
      LL_SPI_SetCRCPolynomial(SPIx, SPI_InitStruct->CRCPoly);
 8001772:	683b      	ldr	r3, [r7, #0]
 8001774:	6a5a      	ldr	r2, [r3, #36]	; 0x24
 8001776:	687b      	ldr	r3, [r7, #4]
 8001778:	0011      	movs	r1, r2
 800177a:	0018      	movs	r0, r3
 800177c:	f7ff ffa9 	bl	80016d2 <LL_SPI_SetCRCPolynomial>
    }
    status = SUCCESS;
 8001780:	230f      	movs	r3, #15
 8001782:	18fb      	adds	r3, r7, r3
 8001784:	2200      	movs	r2, #0
 8001786:	701a      	strb	r2, [r3, #0]

#if defined (SPI_I2S_SUPPORT)
  /* Activate the SPI mode (Reset I2SMOD bit in I2SCFGR register) */
  CLEAR_BIT(SPIx->I2SCFGR, SPI_I2SCFGR_I2SMOD);
#endif /* SPI_I2S_SUPPORT */
  return status;
 8001788:	230f      	movs	r3, #15
 800178a:	18fb      	adds	r3, r7, r3
 800178c:	781b      	ldrb	r3, [r3, #0]
}
 800178e:	0018      	movs	r0, r3
 8001790:	46bd      	mov	sp, r7
 8001792:	b004      	add	sp, #16
 8001794:	bd80      	pop	{r7, pc}
 8001796:	46c0      	nop			; (mov r8, r8)
 8001798:	ffff0040 	.word	0xffff0040

0800179c <LL_TIM_SetPrescaler>:
{
 800179c:	b580      	push	{r7, lr}
 800179e:	b082      	sub	sp, #8
 80017a0:	af00      	add	r7, sp, #0
 80017a2:	6078      	str	r0, [r7, #4]
 80017a4:	6039      	str	r1, [r7, #0]
  WRITE_REG(TIMx->PSC, Prescaler);
 80017a6:	687b      	ldr	r3, [r7, #4]
 80017a8:	683a      	ldr	r2, [r7, #0]
 80017aa:	629a      	str	r2, [r3, #40]	; 0x28
}
 80017ac:	46c0      	nop			; (mov r8, r8)
 80017ae:	46bd      	mov	sp, r7
 80017b0:	b002      	add	sp, #8
 80017b2:	bd80      	pop	{r7, pc}

080017b4 <LL_TIM_SetAutoReload>:
{
 80017b4:	b580      	push	{r7, lr}
 80017b6:	b082      	sub	sp, #8
 80017b8:	af00      	add	r7, sp, #0
 80017ba:	6078      	str	r0, [r7, #4]
 80017bc:	6039      	str	r1, [r7, #0]
  WRITE_REG(TIMx->ARR, AutoReload);
 80017be:	687b      	ldr	r3, [r7, #4]
 80017c0:	683a      	ldr	r2, [r7, #0]
 80017c2:	62da      	str	r2, [r3, #44]	; 0x2c
}
 80017c4:	46c0      	nop			; (mov r8, r8)
 80017c6:	46bd      	mov	sp, r7
 80017c8:	b002      	add	sp, #8
 80017ca:	bd80      	pop	{r7, pc}

080017cc <LL_TIM_OC_SetCompareCH1>:
{
 80017cc:	b580      	push	{r7, lr}
 80017ce:	b082      	sub	sp, #8
 80017d0:	af00      	add	r7, sp, #0
 80017d2:	6078      	str	r0, [r7, #4]
 80017d4:	6039      	str	r1, [r7, #0]
  WRITE_REG(TIMx->CCR1, CompareValue);
 80017d6:	687b      	ldr	r3, [r7, #4]
 80017d8:	683a      	ldr	r2, [r7, #0]
 80017da:	635a      	str	r2, [r3, #52]	; 0x34
}
 80017dc:	46c0      	nop			; (mov r8, r8)
 80017de:	46bd      	mov	sp, r7
 80017e0:	b002      	add	sp, #8
 80017e2:	bd80      	pop	{r7, pc}

080017e4 <LL_TIM_OC_SetCompareCH2>:
{
 80017e4:	b580      	push	{r7, lr}
 80017e6:	b082      	sub	sp, #8
 80017e8:	af00      	add	r7, sp, #0
 80017ea:	6078      	str	r0, [r7, #4]
 80017ec:	6039      	str	r1, [r7, #0]
  WRITE_REG(TIMx->CCR2, CompareValue);
 80017ee:	687b      	ldr	r3, [r7, #4]
 80017f0:	683a      	ldr	r2, [r7, #0]
 80017f2:	639a      	str	r2, [r3, #56]	; 0x38
}
 80017f4:	46c0      	nop			; (mov r8, r8)
 80017f6:	46bd      	mov	sp, r7
 80017f8:	b002      	add	sp, #8
 80017fa:	bd80      	pop	{r7, pc}

080017fc <LL_TIM_OC_SetCompareCH3>:
{
 80017fc:	b580      	push	{r7, lr}
 80017fe:	b082      	sub	sp, #8
 8001800:	af00      	add	r7, sp, #0
 8001802:	6078      	str	r0, [r7, #4]
 8001804:	6039      	str	r1, [r7, #0]
  WRITE_REG(TIMx->CCR3, CompareValue);
 8001806:	687b      	ldr	r3, [r7, #4]
 8001808:	683a      	ldr	r2, [r7, #0]
 800180a:	63da      	str	r2, [r3, #60]	; 0x3c
}
 800180c:	46c0      	nop			; (mov r8, r8)
 800180e:	46bd      	mov	sp, r7
 8001810:	b002      	add	sp, #8
 8001812:	bd80      	pop	{r7, pc}

08001814 <LL_TIM_OC_SetCompareCH4>:
{
 8001814:	b580      	push	{r7, lr}
 8001816:	b082      	sub	sp, #8
 8001818:	af00      	add	r7, sp, #0
 800181a:	6078      	str	r0, [r7, #4]
 800181c:	6039      	str	r1, [r7, #0]
  WRITE_REG(TIMx->CCR4, CompareValue);
 800181e:	687b      	ldr	r3, [r7, #4]
 8001820:	683a      	ldr	r2, [r7, #0]
 8001822:	641a      	str	r2, [r3, #64]	; 0x40
}
 8001824:	46c0      	nop			; (mov r8, r8)
 8001826:	46bd      	mov	sp, r7
 8001828:	b002      	add	sp, #8
 800182a:	bd80      	pop	{r7, pc}

0800182c <LL_TIM_GenerateEvent_UPDATE>:
  * @rmtoll EGR          UG            LL_TIM_GenerateEvent_UPDATE
  * @param  TIMx Timer instance
  * @retval None
  */
__STATIC_INLINE void LL_TIM_GenerateEvent_UPDATE(TIM_TypeDef *TIMx)
{
 800182c:	b580      	push	{r7, lr}
 800182e:	b082      	sub	sp, #8
 8001830:	af00      	add	r7, sp, #0
 8001832:	6078      	str	r0, [r7, #4]
  SET_BIT(TIMx->EGR, TIM_EGR_UG);
 8001834:	687b      	ldr	r3, [r7, #4]
 8001836:	695b      	ldr	r3, [r3, #20]
 8001838:	2201      	movs	r2, #1
 800183a:	431a      	orrs	r2, r3
 800183c:	687b      	ldr	r3, [r7, #4]
 800183e:	615a      	str	r2, [r3, #20]
}
 8001840:	46c0      	nop			; (mov r8, r8)
 8001842:	46bd      	mov	sp, r7
 8001844:	b002      	add	sp, #8
 8001846:	bd80      	pop	{r7, pc}

08001848 <LL_TIM_Init>:
  * @retval An ErrorStatus enumeration value:
  *          - SUCCESS: TIMx registers are de-initialized
  *          - ERROR: not applicable
  */
ErrorStatus LL_TIM_Init(TIM_TypeDef *TIMx, const LL_TIM_InitTypeDef *TIM_InitStruct)
{
 8001848:	b580      	push	{r7, lr}
 800184a:	b084      	sub	sp, #16
 800184c:	af00      	add	r7, sp, #0
 800184e:	6078      	str	r0, [r7, #4]
 8001850:	6039      	str	r1, [r7, #0]
  /* Check the parameters */
  assert_param(IS_TIM_INSTANCE(TIMx));
  assert_param(IS_LL_TIM_COUNTERMODE(TIM_InitStruct->CounterMode));
  assert_param(IS_LL_TIM_CLOCKDIVISION(TIM_InitStruct->ClockDivision));

  tmpcr1 = LL_TIM_ReadReg(TIMx, CR1);
 8001852:	687b      	ldr	r3, [r7, #4]
 8001854:	681b      	ldr	r3, [r3, #0]
 8001856:	60fb      	str	r3, [r7, #12]

  if (IS_TIM_COUNTER_MODE_SELECT_INSTANCE(TIMx))
 8001858:	687a      	ldr	r2, [r7, #4]
 800185a:	2380      	movs	r3, #128	; 0x80
 800185c:	05db      	lsls	r3, r3, #23
 800185e:	429a      	cmp	r2, r3
 8001860:	d003      	beq.n	800186a <LL_TIM_Init+0x22>
 8001862:	687b      	ldr	r3, [r7, #4]
 8001864:	4a1a      	ldr	r2, [pc, #104]	; (80018d0 <LL_TIM_Init+0x88>)
 8001866:	4293      	cmp	r3, r2
 8001868:	d107      	bne.n	800187a <LL_TIM_Init+0x32>
  {
    /* Select the Counter Mode */
    MODIFY_REG(tmpcr1, (TIM_CR1_DIR | TIM_CR1_CMS), TIM_InitStruct->CounterMode);
 800186a:	68fb      	ldr	r3, [r7, #12]
 800186c:	2270      	movs	r2, #112	; 0x70
 800186e:	4393      	bics	r3, r2
 8001870:	001a      	movs	r2, r3
 8001872:	683b      	ldr	r3, [r7, #0]
 8001874:	685b      	ldr	r3, [r3, #4]
 8001876:	4313      	orrs	r3, r2
 8001878:	60fb      	str	r3, [r7, #12]
  }

  if (IS_TIM_CLOCK_DIVISION_INSTANCE(TIMx))
 800187a:	687a      	ldr	r2, [r7, #4]
 800187c:	2380      	movs	r3, #128	; 0x80
 800187e:	05db      	lsls	r3, r3, #23
 8001880:	429a      	cmp	r2, r3
 8001882:	d003      	beq.n	800188c <LL_TIM_Init+0x44>
 8001884:	687b      	ldr	r3, [r7, #4]
 8001886:	4a12      	ldr	r2, [pc, #72]	; (80018d0 <LL_TIM_Init+0x88>)
 8001888:	4293      	cmp	r3, r2
 800188a:	d106      	bne.n	800189a <LL_TIM_Init+0x52>
  {
    /* Set the clock division */
    MODIFY_REG(tmpcr1, TIM_CR1_CKD, TIM_InitStruct->ClockDivision);
 800188c:	68fb      	ldr	r3, [r7, #12]
 800188e:	4a11      	ldr	r2, [pc, #68]	; (80018d4 <LL_TIM_Init+0x8c>)
 8001890:	401a      	ands	r2, r3
 8001892:	683b      	ldr	r3, [r7, #0]
 8001894:	68db      	ldr	r3, [r3, #12]
 8001896:	4313      	orrs	r3, r2
 8001898:	60fb      	str	r3, [r7, #12]
  }

  /* Write to TIMx CR1 */
  LL_TIM_WriteReg(TIMx, CR1, tmpcr1);
 800189a:	687b      	ldr	r3, [r7, #4]
 800189c:	68fa      	ldr	r2, [r7, #12]
 800189e:	601a      	str	r2, [r3, #0]

  /* Set the Autoreload value */
  LL_TIM_SetAutoReload(TIMx, TIM_InitStruct->Autoreload);
 80018a0:	683b      	ldr	r3, [r7, #0]
 80018a2:	689a      	ldr	r2, [r3, #8]
 80018a4:	687b      	ldr	r3, [r7, #4]
 80018a6:	0011      	movs	r1, r2
 80018a8:	0018      	movs	r0, r3
 80018aa:	f7ff ff83 	bl	80017b4 <LL_TIM_SetAutoReload>

  /* Set the Prescaler value */
  LL_TIM_SetPrescaler(TIMx, TIM_InitStruct->Prescaler);
 80018ae:	683b      	ldr	r3, [r7, #0]
 80018b0:	881b      	ldrh	r3, [r3, #0]
 80018b2:	001a      	movs	r2, r3
 80018b4:	687b      	ldr	r3, [r7, #4]
 80018b6:	0011      	movs	r1, r2
 80018b8:	0018      	movs	r0, r3
 80018ba:	f7ff ff6f 	bl	800179c <LL_TIM_SetPrescaler>
  /* Generate an update event to reload the Prescaler
     and the repetition counter value (if applicable) immediately */
  LL_TIM_GenerateEvent_UPDATE(TIMx);
 80018be:	687b      	ldr	r3, [r7, #4]
 80018c0:	0018      	movs	r0, r3
 80018c2:	f7ff ffb3 	bl	800182c <LL_TIM_GenerateEvent_UPDATE>

  return SUCCESS;
 80018c6:	2300      	movs	r3, #0
}
 80018c8:	0018      	movs	r0, r3
 80018ca:	46bd      	mov	sp, r7
 80018cc:	b004      	add	sp, #16
 80018ce:	bd80      	pop	{r7, pc}
 80018d0:	40010800 	.word	0x40010800
 80018d4:	fffffcff 	.word	0xfffffcff

080018d8 <LL_TIM_OC_Init>:
  * @retval An ErrorStatus enumeration value:
  *          - SUCCESS: TIMx output channel is initialized
  *          - ERROR: TIMx output channel is not initialized
  */
ErrorStatus LL_TIM_OC_Init(TIM_TypeDef *TIMx, uint32_t Channel, const LL_TIM_OC_InitTypeDef *TIM_OC_InitStruct)
{
 80018d8:	b590      	push	{r4, r7, lr}
 80018da:	b087      	sub	sp, #28
 80018dc:	af00      	add	r7, sp, #0
 80018de:	60f8      	str	r0, [r7, #12]
 80018e0:	60b9      	str	r1, [r7, #8]
 80018e2:	607a      	str	r2, [r7, #4]
  ErrorStatus result = ERROR;
 80018e4:	2317      	movs	r3, #23
 80018e6:	18fb      	adds	r3, r7, r3
 80018e8:	2201      	movs	r2, #1
 80018ea:	701a      	strb	r2, [r3, #0]

  switch (Channel)
 80018ec:	68ba      	ldr	r2, [r7, #8]
 80018ee:	2380      	movs	r3, #128	; 0x80
 80018f0:	015b      	lsls	r3, r3, #5
 80018f2:	429a      	cmp	r2, r3
 80018f4:	d036      	beq.n	8001964 <LL_TIM_OC_Init+0x8c>
 80018f6:	68ba      	ldr	r2, [r7, #8]
 80018f8:	2380      	movs	r3, #128	; 0x80
 80018fa:	015b      	lsls	r3, r3, #5
 80018fc:	429a      	cmp	r2, r3
 80018fe:	d83c      	bhi.n	800197a <LL_TIM_OC_Init+0xa2>
 8001900:	68ba      	ldr	r2, [r7, #8]
 8001902:	2380      	movs	r3, #128	; 0x80
 8001904:	005b      	lsls	r3, r3, #1
 8001906:	429a      	cmp	r2, r3
 8001908:	d021      	beq.n	800194e <LL_TIM_OC_Init+0x76>
 800190a:	68ba      	ldr	r2, [r7, #8]
 800190c:	2380      	movs	r3, #128	; 0x80
 800190e:	005b      	lsls	r3, r3, #1
 8001910:	429a      	cmp	r2, r3
 8001912:	d832      	bhi.n	800197a <LL_TIM_OC_Init+0xa2>
 8001914:	68bb      	ldr	r3, [r7, #8]
 8001916:	2b01      	cmp	r3, #1
 8001918:	d003      	beq.n	8001922 <LL_TIM_OC_Init+0x4a>
 800191a:	68bb      	ldr	r3, [r7, #8]
 800191c:	2b10      	cmp	r3, #16
 800191e:	d00b      	beq.n	8001938 <LL_TIM_OC_Init+0x60>
      break;
    case LL_TIM_CHANNEL_CH4:
      result = OC4Config(TIMx, TIM_OC_InitStruct);
      break;
    default:
      break;
 8001920:	e02b      	b.n	800197a <LL_TIM_OC_Init+0xa2>
      result = OC1Config(TIMx, TIM_OC_InitStruct);
 8001922:	2317      	movs	r3, #23
 8001924:	18fc      	adds	r4, r7, r3
 8001926:	687a      	ldr	r2, [r7, #4]
 8001928:	68fb      	ldr	r3, [r7, #12]
 800192a:	0011      	movs	r1, r2
 800192c:	0018      	movs	r0, r3
 800192e:	f000 f82c 	bl	800198a <OC1Config>
 8001932:	0003      	movs	r3, r0
 8001934:	7023      	strb	r3, [r4, #0]
      break;
 8001936:	e021      	b.n	800197c <LL_TIM_OC_Init+0xa4>
      result = OC2Config(TIMx, TIM_OC_InitStruct);
 8001938:	2317      	movs	r3, #23
 800193a:	18fc      	adds	r4, r7, r3
 800193c:	687a      	ldr	r2, [r7, #4]
 800193e:	68fb      	ldr	r3, [r7, #12]
 8001940:	0011      	movs	r1, r2
 8001942:	0018      	movs	r0, r3
 8001944:	f000 f868 	bl	8001a18 <OC2Config>
 8001948:	0003      	movs	r3, r0
 800194a:	7023      	strb	r3, [r4, #0]
      break;
 800194c:	e016      	b.n	800197c <LL_TIM_OC_Init+0xa4>
      result = OC3Config(TIMx, TIM_OC_InitStruct);
 800194e:	2317      	movs	r3, #23
 8001950:	18fc      	adds	r4, r7, r3
 8001952:	687a      	ldr	r2, [r7, #4]
 8001954:	68fb      	ldr	r3, [r7, #12]
 8001956:	0011      	movs	r1, r2
 8001958:	0018      	movs	r0, r3
 800195a:	f000 f8a9 	bl	8001ab0 <OC3Config>
 800195e:	0003      	movs	r3, r0
 8001960:	7023      	strb	r3, [r4, #0]
      break;
 8001962:	e00b      	b.n	800197c <LL_TIM_OC_Init+0xa4>
      result = OC4Config(TIMx, TIM_OC_InitStruct);
 8001964:	2317      	movs	r3, #23
 8001966:	18fc      	adds	r4, r7, r3
 8001968:	687a      	ldr	r2, [r7, #4]
 800196a:	68fb      	ldr	r3, [r7, #12]
 800196c:	0011      	movs	r1, r2
 800196e:	0018      	movs	r0, r3
 8001970:	f000 f8e8 	bl	8001b44 <OC4Config>
 8001974:	0003      	movs	r3, r0
 8001976:	7023      	strb	r3, [r4, #0]
      break;
 8001978:	e000      	b.n	800197c <LL_TIM_OC_Init+0xa4>
      break;
 800197a:	46c0      	nop			; (mov r8, r8)
  }

  return result;
 800197c:	2317      	movs	r3, #23
 800197e:	18fb      	adds	r3, r7, r3
 8001980:	781b      	ldrb	r3, [r3, #0]
}
 8001982:	0018      	movs	r0, r3
 8001984:	46bd      	mov	sp, r7
 8001986:	b007      	add	sp, #28
 8001988:	bd90      	pop	{r4, r7, pc}

0800198a <OC1Config>:
  * @retval An ErrorStatus enumeration value:
  *          - SUCCESS: TIMx registers are de-initialized
  *          - ERROR: not applicable
  */
static ErrorStatus OC1Config(TIM_TypeDef *TIMx, const LL_TIM_OC_InitTypeDef *TIM_OCInitStruct)
{
 800198a:	b580      	push	{r7, lr}
 800198c:	b086      	sub	sp, #24
 800198e:	af00      	add	r7, sp, #0
 8001990:	6078      	str	r0, [r7, #4]
 8001992:	6039      	str	r1, [r7, #0]
  assert_param(IS_LL_TIM_OCMODE(TIM_OCInitStruct->OCMode));
  assert_param(IS_LL_TIM_OCSTATE(TIM_OCInitStruct->OCState));
  assert_param(IS_LL_TIM_OCPOLARITY(TIM_OCInitStruct->OCPolarity));

  /* Disable the Channel 1: Reset the CC1E Bit */
  CLEAR_BIT(TIMx->CCER, TIM_CCER_CC1E);
 8001994:	687b      	ldr	r3, [r7, #4]
 8001996:	6a1b      	ldr	r3, [r3, #32]
 8001998:	2201      	movs	r2, #1
 800199a:	4393      	bics	r3, r2
 800199c:	001a      	movs	r2, r3
 800199e:	687b      	ldr	r3, [r7, #4]
 80019a0:	621a      	str	r2, [r3, #32]

  /* Get the TIMx CCER register value */
  tmpccer = LL_TIM_ReadReg(TIMx, CCER);
 80019a2:	687b      	ldr	r3, [r7, #4]
 80019a4:	6a1b      	ldr	r3, [r3, #32]
 80019a6:	617b      	str	r3, [r7, #20]

  /* Get the TIMx CR2 register value */
  tmpcr2 = LL_TIM_ReadReg(TIMx, CR2);
 80019a8:	687b      	ldr	r3, [r7, #4]
 80019aa:	685b      	ldr	r3, [r3, #4]
 80019ac:	613b      	str	r3, [r7, #16]

  /* Get the TIMx CCMR1 register value */
  tmpccmr1 = LL_TIM_ReadReg(TIMx, CCMR1);
 80019ae:	687b      	ldr	r3, [r7, #4]
 80019b0:	699b      	ldr	r3, [r3, #24]
 80019b2:	60fb      	str	r3, [r7, #12]

  /* Reset Capture/Compare selection Bits */
  CLEAR_BIT(tmpccmr1, TIM_CCMR1_CC1S);
 80019b4:	68fb      	ldr	r3, [r7, #12]
 80019b6:	2203      	movs	r2, #3
 80019b8:	4393      	bics	r3, r2
 80019ba:	60fb      	str	r3, [r7, #12]

  /* Set the Output Compare Mode */
  MODIFY_REG(tmpccmr1, TIM_CCMR1_OC1M, TIM_OCInitStruct->OCMode);
 80019bc:	68fb      	ldr	r3, [r7, #12]
 80019be:	2270      	movs	r2, #112	; 0x70
 80019c0:	4393      	bics	r3, r2
 80019c2:	001a      	movs	r2, r3
 80019c4:	683b      	ldr	r3, [r7, #0]
 80019c6:	681b      	ldr	r3, [r3, #0]
 80019c8:	4313      	orrs	r3, r2
 80019ca:	60fb      	str	r3, [r7, #12]

  /* Set the Output Compare Polarity */
  MODIFY_REG(tmpccer, TIM_CCER_CC1P, TIM_OCInitStruct->OCPolarity);
 80019cc:	697b      	ldr	r3, [r7, #20]
 80019ce:	2202      	movs	r2, #2
 80019d0:	4393      	bics	r3, r2
 80019d2:	001a      	movs	r2, r3
 80019d4:	683b      	ldr	r3, [r7, #0]
 80019d6:	68db      	ldr	r3, [r3, #12]
 80019d8:	4313      	orrs	r3, r2
 80019da:	617b      	str	r3, [r7, #20]

  /* Set the Output State */
  MODIFY_REG(tmpccer, TIM_CCER_CC1E, TIM_OCInitStruct->OCState);
 80019dc:	697b      	ldr	r3, [r7, #20]
 80019de:	2201      	movs	r2, #1
 80019e0:	4393      	bics	r3, r2
 80019e2:	001a      	movs	r2, r3
 80019e4:	683b      	ldr	r3, [r7, #0]
 80019e6:	685b      	ldr	r3, [r3, #4]
 80019e8:	4313      	orrs	r3, r2
 80019ea:	617b      	str	r3, [r7, #20]

  /* Write to TIMx CR2 */
  LL_TIM_WriteReg(TIMx, CR2, tmpcr2);
 80019ec:	687b      	ldr	r3, [r7, #4]
 80019ee:	693a      	ldr	r2, [r7, #16]
 80019f0:	605a      	str	r2, [r3, #4]

  /* Write to TIMx CCMR1 */
  LL_TIM_WriteReg(TIMx, CCMR1, tmpccmr1);
 80019f2:	687b      	ldr	r3, [r7, #4]
 80019f4:	68fa      	ldr	r2, [r7, #12]
 80019f6:	619a      	str	r2, [r3, #24]

  /* Set the Capture Compare Register value */
  LL_TIM_OC_SetCompareCH1(TIMx, TIM_OCInitStruct->CompareValue);
 80019f8:	683b      	ldr	r3, [r7, #0]
 80019fa:	689a      	ldr	r2, [r3, #8]
 80019fc:	687b      	ldr	r3, [r7, #4]
 80019fe:	0011      	movs	r1, r2
 8001a00:	0018      	movs	r0, r3
 8001a02:	f7ff fee3 	bl	80017cc <LL_TIM_OC_SetCompareCH1>

  /* Write to TIMx CCER */
  LL_TIM_WriteReg(TIMx, CCER, tmpccer);
 8001a06:	687b      	ldr	r3, [r7, #4]
 8001a08:	697a      	ldr	r2, [r7, #20]
 8001a0a:	621a      	str	r2, [r3, #32]

  return SUCCESS;
 8001a0c:	2300      	movs	r3, #0
}
 8001a0e:	0018      	movs	r0, r3
 8001a10:	46bd      	mov	sp, r7
 8001a12:	b006      	add	sp, #24
 8001a14:	bd80      	pop	{r7, pc}
	...

08001a18 <OC2Config>:
  * @retval An ErrorStatus enumeration value:
  *          - SUCCESS: TIMx registers are de-initialized
  *          - ERROR: not applicable
  */
static ErrorStatus OC2Config(TIM_TypeDef *TIMx, const LL_TIM_OC_InitTypeDef *TIM_OCInitStruct)
{
 8001a18:	b580      	push	{r7, lr}
 8001a1a:	b086      	sub	sp, #24
 8001a1c:	af00      	add	r7, sp, #0
 8001a1e:	6078      	str	r0, [r7, #4]
 8001a20:	6039      	str	r1, [r7, #0]
  assert_param(IS_LL_TIM_OCMODE(TIM_OCInitStruct->OCMode));
  assert_param(IS_LL_TIM_OCSTATE(TIM_OCInitStruct->OCState));
  assert_param(IS_LL_TIM_OCPOLARITY(TIM_OCInitStruct->OCPolarity));

  /* Disable the Channel 2: Reset the CC2E Bit */
  CLEAR_BIT(TIMx->CCER, TIM_CCER_CC2E);
 8001a22:	687b      	ldr	r3, [r7, #4]
 8001a24:	6a1b      	ldr	r3, [r3, #32]
 8001a26:	2210      	movs	r2, #16
 8001a28:	4393      	bics	r3, r2
 8001a2a:	001a      	movs	r2, r3
 8001a2c:	687b      	ldr	r3, [r7, #4]
 8001a2e:	621a      	str	r2, [r3, #32]

  /* Get the TIMx CCER register value */
  tmpccer =  LL_TIM_ReadReg(TIMx, CCER);
 8001a30:	687b      	ldr	r3, [r7, #4]
 8001a32:	6a1b      	ldr	r3, [r3, #32]
 8001a34:	617b      	str	r3, [r7, #20]

  /* Get the TIMx CR2 register value */
  tmpcr2 = LL_TIM_ReadReg(TIMx, CR2);
 8001a36:	687b      	ldr	r3, [r7, #4]
 8001a38:	685b      	ldr	r3, [r3, #4]
 8001a3a:	613b      	str	r3, [r7, #16]

  /* Get the TIMx CCMR1 register value */
  tmpccmr1 = LL_TIM_ReadReg(TIMx, CCMR1);
 8001a3c:	687b      	ldr	r3, [r7, #4]
 8001a3e:	699b      	ldr	r3, [r3, #24]
 8001a40:	60fb      	str	r3, [r7, #12]

  /* Reset Capture/Compare selection Bits */
  CLEAR_BIT(tmpccmr1, TIM_CCMR1_CC2S);
 8001a42:	68fb      	ldr	r3, [r7, #12]
 8001a44:	4a18      	ldr	r2, [pc, #96]	; (8001aa8 <OC2Config+0x90>)
 8001a46:	4013      	ands	r3, r2
 8001a48:	60fb      	str	r3, [r7, #12]

  /* Select the Output Compare Mode */
  MODIFY_REG(tmpccmr1, TIM_CCMR1_OC2M, TIM_OCInitStruct->OCMode << 8U);
 8001a4a:	68fb      	ldr	r3, [r7, #12]
 8001a4c:	4a17      	ldr	r2, [pc, #92]	; (8001aac <OC2Config+0x94>)
 8001a4e:	401a      	ands	r2, r3
 8001a50:	683b      	ldr	r3, [r7, #0]
 8001a52:	681b      	ldr	r3, [r3, #0]
 8001a54:	021b      	lsls	r3, r3, #8
 8001a56:	4313      	orrs	r3, r2
 8001a58:	60fb      	str	r3, [r7, #12]

  /* Set the Output Compare Polarity */
  MODIFY_REG(tmpccer, TIM_CCER_CC2P, TIM_OCInitStruct->OCPolarity << 4U);
 8001a5a:	697b      	ldr	r3, [r7, #20]
 8001a5c:	2220      	movs	r2, #32
 8001a5e:	4393      	bics	r3, r2
 8001a60:	001a      	movs	r2, r3
 8001a62:	683b      	ldr	r3, [r7, #0]
 8001a64:	68db      	ldr	r3, [r3, #12]
 8001a66:	011b      	lsls	r3, r3, #4
 8001a68:	4313      	orrs	r3, r2
 8001a6a:	617b      	str	r3, [r7, #20]

  /* Set the Output State */
  MODIFY_REG(tmpccer, TIM_CCER_CC2E, TIM_OCInitStruct->OCState << 4U);
 8001a6c:	697b      	ldr	r3, [r7, #20]
 8001a6e:	2210      	movs	r2, #16
 8001a70:	4393      	bics	r3, r2
 8001a72:	001a      	movs	r2, r3
 8001a74:	683b      	ldr	r3, [r7, #0]
 8001a76:	685b      	ldr	r3, [r3, #4]
 8001a78:	011b      	lsls	r3, r3, #4
 8001a7a:	4313      	orrs	r3, r2
 8001a7c:	617b      	str	r3, [r7, #20]

  /* Write to TIMx CR2 */
  LL_TIM_WriteReg(TIMx, CR2, tmpcr2);
 8001a7e:	687b      	ldr	r3, [r7, #4]
 8001a80:	693a      	ldr	r2, [r7, #16]
 8001a82:	605a      	str	r2, [r3, #4]

  /* Write to TIMx CCMR1 */
  LL_TIM_WriteReg(TIMx, CCMR1, tmpccmr1);
 8001a84:	687b      	ldr	r3, [r7, #4]
 8001a86:	68fa      	ldr	r2, [r7, #12]
 8001a88:	619a      	str	r2, [r3, #24]

  /* Set the Capture Compare Register value */
  LL_TIM_OC_SetCompareCH2(TIMx, TIM_OCInitStruct->CompareValue);
 8001a8a:	683b      	ldr	r3, [r7, #0]
 8001a8c:	689a      	ldr	r2, [r3, #8]
 8001a8e:	687b      	ldr	r3, [r7, #4]
 8001a90:	0011      	movs	r1, r2
 8001a92:	0018      	movs	r0, r3
 8001a94:	f7ff fea6 	bl	80017e4 <LL_TIM_OC_SetCompareCH2>

  /* Write to TIMx CCER */
  LL_TIM_WriteReg(TIMx, CCER, tmpccer);
 8001a98:	687b      	ldr	r3, [r7, #4]
 8001a9a:	697a      	ldr	r2, [r7, #20]
 8001a9c:	621a      	str	r2, [r3, #32]

  return SUCCESS;
 8001a9e:	2300      	movs	r3, #0
}
 8001aa0:	0018      	movs	r0, r3
 8001aa2:	46bd      	mov	sp, r7
 8001aa4:	b006      	add	sp, #24
 8001aa6:	bd80      	pop	{r7, pc}
 8001aa8:	fffffcff 	.word	0xfffffcff
 8001aac:	ffff8fff 	.word	0xffff8fff

08001ab0 <OC3Config>:
  * @retval An ErrorStatus enumeration value:
  *          - SUCCESS: TIMx registers are de-initialized
  *          - ERROR: not applicable
  */
static ErrorStatus OC3Config(TIM_TypeDef *TIMx, const LL_TIM_OC_InitTypeDef *TIM_OCInitStruct)
{
 8001ab0:	b580      	push	{r7, lr}
 8001ab2:	b086      	sub	sp, #24
 8001ab4:	af00      	add	r7, sp, #0
 8001ab6:	6078      	str	r0, [r7, #4]
 8001ab8:	6039      	str	r1, [r7, #0]
  assert_param(IS_LL_TIM_OCMODE(TIM_OCInitStruct->OCMode));
  assert_param(IS_LL_TIM_OCSTATE(TIM_OCInitStruct->OCState));
  assert_param(IS_LL_TIM_OCPOLARITY(TIM_OCInitStruct->OCPolarity));

  /* Disable the Channel 3: Reset the CC3E Bit */
  CLEAR_BIT(TIMx->CCER, TIM_CCER_CC3E);
 8001aba:	687b      	ldr	r3, [r7, #4]
 8001abc:	6a1b      	ldr	r3, [r3, #32]
 8001abe:	4a1f      	ldr	r2, [pc, #124]	; (8001b3c <OC3Config+0x8c>)
 8001ac0:	401a      	ands	r2, r3
 8001ac2:	687b      	ldr	r3, [r7, #4]
 8001ac4:	621a      	str	r2, [r3, #32]

  /* Get the TIMx CCER register value */
  tmpccer =  LL_TIM_ReadReg(TIMx, CCER);
 8001ac6:	687b      	ldr	r3, [r7, #4]
 8001ac8:	6a1b      	ldr	r3, [r3, #32]
 8001aca:	617b      	str	r3, [r7, #20]

  /* Get the TIMx CR2 register value */
  tmpcr2 = LL_TIM_ReadReg(TIMx, CR2);
 8001acc:	687b      	ldr	r3, [r7, #4]
 8001ace:	685b      	ldr	r3, [r3, #4]
 8001ad0:	613b      	str	r3, [r7, #16]

  /* Get the TIMx CCMR2 register value */
  tmpccmr2 = LL_TIM_ReadReg(TIMx, CCMR2);
 8001ad2:	687b      	ldr	r3, [r7, #4]
 8001ad4:	69db      	ldr	r3, [r3, #28]
 8001ad6:	60fb      	str	r3, [r7, #12]

  /* Reset Capture/Compare selection Bits */
  CLEAR_BIT(tmpccmr2, TIM_CCMR2_CC3S);
 8001ad8:	68fb      	ldr	r3, [r7, #12]
 8001ada:	2203      	movs	r2, #3
 8001adc:	4393      	bics	r3, r2
 8001ade:	60fb      	str	r3, [r7, #12]

  /* Select the Output Compare Mode */
  MODIFY_REG(tmpccmr2, TIM_CCMR2_OC3M, TIM_OCInitStruct->OCMode);
 8001ae0:	68fb      	ldr	r3, [r7, #12]
 8001ae2:	2270      	movs	r2, #112	; 0x70
 8001ae4:	4393      	bics	r3, r2
 8001ae6:	001a      	movs	r2, r3
 8001ae8:	683b      	ldr	r3, [r7, #0]
 8001aea:	681b      	ldr	r3, [r3, #0]
 8001aec:	4313      	orrs	r3, r2
 8001aee:	60fb      	str	r3, [r7, #12]

  /* Set the Output Compare Polarity */
  MODIFY_REG(tmpccer, TIM_CCER_CC3P, TIM_OCInitStruct->OCPolarity << 8U);
 8001af0:	697b      	ldr	r3, [r7, #20]
 8001af2:	4a13      	ldr	r2, [pc, #76]	; (8001b40 <OC3Config+0x90>)
 8001af4:	401a      	ands	r2, r3
 8001af6:	683b      	ldr	r3, [r7, #0]
 8001af8:	68db      	ldr	r3, [r3, #12]
 8001afa:	021b      	lsls	r3, r3, #8
 8001afc:	4313      	orrs	r3, r2
 8001afe:	617b      	str	r3, [r7, #20]

  /* Set the Output State */
  MODIFY_REG(tmpccer, TIM_CCER_CC3E, TIM_OCInitStruct->OCState << 8U);
 8001b00:	697b      	ldr	r3, [r7, #20]
 8001b02:	4a0e      	ldr	r2, [pc, #56]	; (8001b3c <OC3Config+0x8c>)
 8001b04:	401a      	ands	r2, r3
 8001b06:	683b      	ldr	r3, [r7, #0]
 8001b08:	685b      	ldr	r3, [r3, #4]
 8001b0a:	021b      	lsls	r3, r3, #8
 8001b0c:	4313      	orrs	r3, r2
 8001b0e:	617b      	str	r3, [r7, #20]

  /* Write to TIMx CR2 */
  LL_TIM_WriteReg(TIMx, CR2, tmpcr2);
 8001b10:	687b      	ldr	r3, [r7, #4]
 8001b12:	693a      	ldr	r2, [r7, #16]
 8001b14:	605a      	str	r2, [r3, #4]

  /* Write to TIMx CCMR2 */
  LL_TIM_WriteReg(TIMx, CCMR2, tmpccmr2);
 8001b16:	687b      	ldr	r3, [r7, #4]
 8001b18:	68fa      	ldr	r2, [r7, #12]
 8001b1a:	61da      	str	r2, [r3, #28]

  /* Set the Capture Compare Register value */
  LL_TIM_OC_SetCompareCH3(TIMx, TIM_OCInitStruct->CompareValue);
 8001b1c:	683b      	ldr	r3, [r7, #0]
 8001b1e:	689a      	ldr	r2, [r3, #8]
 8001b20:	687b      	ldr	r3, [r7, #4]
 8001b22:	0011      	movs	r1, r2
 8001b24:	0018      	movs	r0, r3
 8001b26:	f7ff fe69 	bl	80017fc <LL_TIM_OC_SetCompareCH3>

  /* Write to TIMx CCER */
  LL_TIM_WriteReg(TIMx, CCER, tmpccer);
 8001b2a:	687b      	ldr	r3, [r7, #4]
 8001b2c:	697a      	ldr	r2, [r7, #20]
 8001b2e:	621a      	str	r2, [r3, #32]

  return SUCCESS;
 8001b30:	2300      	movs	r3, #0
}
 8001b32:	0018      	movs	r0, r3
 8001b34:	46bd      	mov	sp, r7
 8001b36:	b006      	add	sp, #24
 8001b38:	bd80      	pop	{r7, pc}
 8001b3a:	46c0      	nop			; (mov r8, r8)
 8001b3c:	fffffeff 	.word	0xfffffeff
 8001b40:	fffffdff 	.word	0xfffffdff

08001b44 <OC4Config>:
  * @retval An ErrorStatus enumeration value:
  *          - SUCCESS: TIMx registers are de-initialized
  *          - ERROR: not applicable
  */
static ErrorStatus OC4Config(TIM_TypeDef *TIMx, const LL_TIM_OC_InitTypeDef *TIM_OCInitStruct)
{
 8001b44:	b580      	push	{r7, lr}
 8001b46:	b086      	sub	sp, #24
 8001b48:	af00      	add	r7, sp, #0
 8001b4a:	6078      	str	r0, [r7, #4]
 8001b4c:	6039      	str	r1, [r7, #0]
  assert_param(IS_LL_TIM_OCMODE(TIM_OCInitStruct->OCMode));
  assert_param(IS_LL_TIM_OCSTATE(TIM_OCInitStruct->OCState));
  assert_param(IS_LL_TIM_OCPOLARITY(TIM_OCInitStruct->OCPolarity));

  /* Disable the Channel 4: Reset the CC4E Bit */
  CLEAR_BIT(TIMx->CCER, TIM_CCER_CC4E);
 8001b4e:	687b      	ldr	r3, [r7, #4]
 8001b50:	6a1b      	ldr	r3, [r3, #32]
 8001b52:	4a1f      	ldr	r2, [pc, #124]	; (8001bd0 <OC4Config+0x8c>)
 8001b54:	401a      	ands	r2, r3
 8001b56:	687b      	ldr	r3, [r7, #4]
 8001b58:	621a      	str	r2, [r3, #32]

  /* Get the TIMx CCER register value */
  tmpccer = LL_TIM_ReadReg(TIMx, CCER);
 8001b5a:	687b      	ldr	r3, [r7, #4]
 8001b5c:	6a1b      	ldr	r3, [r3, #32]
 8001b5e:	617b      	str	r3, [r7, #20]

  /* Get the TIMx CR2 register value */
  tmpcr2 =  LL_TIM_ReadReg(TIMx, CR2);
 8001b60:	687b      	ldr	r3, [r7, #4]
 8001b62:	685b      	ldr	r3, [r3, #4]
 8001b64:	613b      	str	r3, [r7, #16]

  /* Get the TIMx CCMR2 register value */
  tmpccmr2 = LL_TIM_ReadReg(TIMx, CCMR2);
 8001b66:	687b      	ldr	r3, [r7, #4]
 8001b68:	69db      	ldr	r3, [r3, #28]
 8001b6a:	60fb      	str	r3, [r7, #12]

  /* Reset Capture/Compare selection Bits */
  CLEAR_BIT(tmpccmr2, TIM_CCMR2_CC4S);
 8001b6c:	68fb      	ldr	r3, [r7, #12]
 8001b6e:	4a19      	ldr	r2, [pc, #100]	; (8001bd4 <OC4Config+0x90>)
 8001b70:	4013      	ands	r3, r2
 8001b72:	60fb      	str	r3, [r7, #12]

  /* Select the Output Compare Mode */
  MODIFY_REG(tmpccmr2, TIM_CCMR2_OC4M, TIM_OCInitStruct->OCMode << 8U);
 8001b74:	68fb      	ldr	r3, [r7, #12]
 8001b76:	4a18      	ldr	r2, [pc, #96]	; (8001bd8 <OC4Config+0x94>)
 8001b78:	401a      	ands	r2, r3
 8001b7a:	683b      	ldr	r3, [r7, #0]
 8001b7c:	681b      	ldr	r3, [r3, #0]
 8001b7e:	021b      	lsls	r3, r3, #8
 8001b80:	4313      	orrs	r3, r2
 8001b82:	60fb      	str	r3, [r7, #12]

  /* Set the Output Compare Polarity */
  MODIFY_REG(tmpccer, TIM_CCER_CC4P, TIM_OCInitStruct->OCPolarity << 12U);
 8001b84:	697b      	ldr	r3, [r7, #20]
 8001b86:	4a15      	ldr	r2, [pc, #84]	; (8001bdc <OC4Config+0x98>)
 8001b88:	401a      	ands	r2, r3
 8001b8a:	683b      	ldr	r3, [r7, #0]
 8001b8c:	68db      	ldr	r3, [r3, #12]
 8001b8e:	031b      	lsls	r3, r3, #12
 8001b90:	4313      	orrs	r3, r2
 8001b92:	617b      	str	r3, [r7, #20]

  /* Set the Output State */
  MODIFY_REG(tmpccer, TIM_CCER_CC4E, TIM_OCInitStruct->OCState << 12U);
 8001b94:	697b      	ldr	r3, [r7, #20]
 8001b96:	4a0e      	ldr	r2, [pc, #56]	; (8001bd0 <OC4Config+0x8c>)
 8001b98:	401a      	ands	r2, r3
 8001b9a:	683b      	ldr	r3, [r7, #0]
 8001b9c:	685b      	ldr	r3, [r3, #4]
 8001b9e:	031b      	lsls	r3, r3, #12
 8001ba0:	4313      	orrs	r3, r2
 8001ba2:	617b      	str	r3, [r7, #20]

  /* Write to TIMx CR2 */
  LL_TIM_WriteReg(TIMx, CR2, tmpcr2);
 8001ba4:	687b      	ldr	r3, [r7, #4]
 8001ba6:	693a      	ldr	r2, [r7, #16]
 8001ba8:	605a      	str	r2, [r3, #4]

  /* Write to TIMx CCMR2 */
  LL_TIM_WriteReg(TIMx, CCMR2, tmpccmr2);
 8001baa:	687b      	ldr	r3, [r7, #4]
 8001bac:	68fa      	ldr	r2, [r7, #12]
 8001bae:	61da      	str	r2, [r3, #28]

  /* Set the Capture Compare Register value */
  LL_TIM_OC_SetCompareCH4(TIMx, TIM_OCInitStruct->CompareValue);
 8001bb0:	683b      	ldr	r3, [r7, #0]
 8001bb2:	689a      	ldr	r2, [r3, #8]
 8001bb4:	687b      	ldr	r3, [r7, #4]
 8001bb6:	0011      	movs	r1, r2
 8001bb8:	0018      	movs	r0, r3
 8001bba:	f7ff fe2b 	bl	8001814 <LL_TIM_OC_SetCompareCH4>

  /* Write to TIMx CCER */
  LL_TIM_WriteReg(TIMx, CCER, tmpccer);
 8001bbe:	687b      	ldr	r3, [r7, #4]
 8001bc0:	697a      	ldr	r2, [r7, #20]
 8001bc2:	621a      	str	r2, [r3, #32]

  return SUCCESS;
 8001bc4:	2300      	movs	r3, #0
}
 8001bc6:	0018      	movs	r0, r3
 8001bc8:	46bd      	mov	sp, r7
 8001bca:	b006      	add	sp, #24
 8001bcc:	bd80      	pop	{r7, pc}
 8001bce:	46c0      	nop			; (mov r8, r8)
 8001bd0:	ffffefff 	.word	0xffffefff
 8001bd4:	fffffcff 	.word	0xfffffcff
 8001bd8:	ffff8fff 	.word	0xffff8fff
 8001bdc:	ffffdfff 	.word	0xffffdfff

08001be0 <LL_USART_IsEnabled>:
{
 8001be0:	b580      	push	{r7, lr}
 8001be2:	b082      	sub	sp, #8
 8001be4:	af00      	add	r7, sp, #0
 8001be6:	6078      	str	r0, [r7, #4]
  return ((READ_BIT(USARTx->CR1, USART_CR1_UE) == (USART_CR1_UE)) ? 1UL : 0UL);
 8001be8:	687b      	ldr	r3, [r7, #4]
 8001bea:	681b      	ldr	r3, [r3, #0]
 8001bec:	2201      	movs	r2, #1
 8001bee:	4013      	ands	r3, r2
 8001bf0:	2b01      	cmp	r3, #1
 8001bf2:	d101      	bne.n	8001bf8 <LL_USART_IsEnabled+0x18>
 8001bf4:	2301      	movs	r3, #1
 8001bf6:	e000      	b.n	8001bfa <LL_USART_IsEnabled+0x1a>
 8001bf8:	2300      	movs	r3, #0
}
 8001bfa:	0018      	movs	r0, r3
 8001bfc:	46bd      	mov	sp, r7
 8001bfe:	b002      	add	sp, #8
 8001c00:	bd80      	pop	{r7, pc}
	...

08001c04 <LL_USART_SetStopBitsLength>:
{
 8001c04:	b580      	push	{r7, lr}
 8001c06:	b082      	sub	sp, #8
 8001c08:	af00      	add	r7, sp, #0
 8001c0a:	6078      	str	r0, [r7, #4]
 8001c0c:	6039      	str	r1, [r7, #0]
  MODIFY_REG(USARTx->CR2, USART_CR2_STOP, StopBits);
 8001c0e:	687b      	ldr	r3, [r7, #4]
 8001c10:	685b      	ldr	r3, [r3, #4]
 8001c12:	4a05      	ldr	r2, [pc, #20]	; (8001c28 <LL_USART_SetStopBitsLength+0x24>)
 8001c14:	401a      	ands	r2, r3
 8001c16:	683b      	ldr	r3, [r7, #0]
 8001c18:	431a      	orrs	r2, r3
 8001c1a:	687b      	ldr	r3, [r7, #4]
 8001c1c:	605a      	str	r2, [r3, #4]
}
 8001c1e:	46c0      	nop			; (mov r8, r8)
 8001c20:	46bd      	mov	sp, r7
 8001c22:	b002      	add	sp, #8
 8001c24:	bd80      	pop	{r7, pc}
 8001c26:	46c0      	nop			; (mov r8, r8)
 8001c28:	ffffcfff 	.word	0xffffcfff

08001c2c <LL_USART_SetHWFlowCtrl>:
{
 8001c2c:	b580      	push	{r7, lr}
 8001c2e:	b082      	sub	sp, #8
 8001c30:	af00      	add	r7, sp, #0
 8001c32:	6078      	str	r0, [r7, #4]
 8001c34:	6039      	str	r1, [r7, #0]
  MODIFY_REG(USARTx->CR3, USART_CR3_RTSE | USART_CR3_CTSE, HardwareFlowControl);
 8001c36:	687b      	ldr	r3, [r7, #4]
 8001c38:	689b      	ldr	r3, [r3, #8]
 8001c3a:	4a05      	ldr	r2, [pc, #20]	; (8001c50 <LL_USART_SetHWFlowCtrl+0x24>)
 8001c3c:	401a      	ands	r2, r3
 8001c3e:	683b      	ldr	r3, [r7, #0]
 8001c40:	431a      	orrs	r2, r3
 8001c42:	687b      	ldr	r3, [r7, #4]
 8001c44:	609a      	str	r2, [r3, #8]
}
 8001c46:	46c0      	nop			; (mov r8, r8)
 8001c48:	46bd      	mov	sp, r7
 8001c4a:	b002      	add	sp, #8
 8001c4c:	bd80      	pop	{r7, pc}
 8001c4e:	46c0      	nop			; (mov r8, r8)
 8001c50:	fffffcff 	.word	0xfffffcff

08001c54 <LL_USART_SetBaudRate>:
{
 8001c54:	b580      	push	{r7, lr}
 8001c56:	b086      	sub	sp, #24
 8001c58:	af00      	add	r7, sp, #0
 8001c5a:	60f8      	str	r0, [r7, #12]
 8001c5c:	60b9      	str	r1, [r7, #8]
 8001c5e:	607a      	str	r2, [r7, #4]
 8001c60:	603b      	str	r3, [r7, #0]
  if (OverSampling == LL_USART_OVERSAMPLING_8)
 8001c62:	687a      	ldr	r2, [r7, #4]
 8001c64:	2380      	movs	r3, #128	; 0x80
 8001c66:	021b      	lsls	r3, r3, #8
 8001c68:	429a      	cmp	r2, r3
 8001c6a:	d11c      	bne.n	8001ca6 <LL_USART_SetBaudRate+0x52>
    usartdiv = (uint16_t)(__LL_USART_DIV_SAMPLING8(PeriphClk, BaudRate));
 8001c6c:	68bb      	ldr	r3, [r7, #8]
 8001c6e:	005a      	lsls	r2, r3, #1
 8001c70:	683b      	ldr	r3, [r7, #0]
 8001c72:	085b      	lsrs	r3, r3, #1
 8001c74:	18d3      	adds	r3, r2, r3
 8001c76:	6839      	ldr	r1, [r7, #0]
 8001c78:	0018      	movs	r0, r3
 8001c7a:	f7fe fa45 	bl	8000108 <__udivsi3>
 8001c7e:	0003      	movs	r3, r0
 8001c80:	b29b      	uxth	r3, r3
 8001c82:	617b      	str	r3, [r7, #20]
    brrtemp = usartdiv & 0xFFF0U;
 8001c84:	697b      	ldr	r3, [r7, #20]
 8001c86:	4a10      	ldr	r2, [pc, #64]	; (8001cc8 <LL_USART_SetBaudRate+0x74>)
 8001c88:	4013      	ands	r3, r2
 8001c8a:	613b      	str	r3, [r7, #16]
    brrtemp |= (uint16_t)((usartdiv & (uint16_t)0x000FU) >> 1U);
 8001c8c:	697b      	ldr	r3, [r7, #20]
 8001c8e:	085b      	lsrs	r3, r3, #1
 8001c90:	b29b      	uxth	r3, r3
 8001c92:	001a      	movs	r2, r3
 8001c94:	2307      	movs	r3, #7
 8001c96:	4013      	ands	r3, r2
 8001c98:	693a      	ldr	r2, [r7, #16]
 8001c9a:	4313      	orrs	r3, r2
 8001c9c:	613b      	str	r3, [r7, #16]
    USARTx->BRR = brrtemp;
 8001c9e:	68fb      	ldr	r3, [r7, #12]
 8001ca0:	693a      	ldr	r2, [r7, #16]
 8001ca2:	60da      	str	r2, [r3, #12]
}
 8001ca4:	e00c      	b.n	8001cc0 <LL_USART_SetBaudRate+0x6c>
    USARTx->BRR = (uint16_t)(__LL_USART_DIV_SAMPLING16(PeriphClk, BaudRate));
 8001ca6:	683b      	ldr	r3, [r7, #0]
 8001ca8:	085a      	lsrs	r2, r3, #1
 8001caa:	68bb      	ldr	r3, [r7, #8]
 8001cac:	18d3      	adds	r3, r2, r3
 8001cae:	6839      	ldr	r1, [r7, #0]
 8001cb0:	0018      	movs	r0, r3
 8001cb2:	f7fe fa29 	bl	8000108 <__udivsi3>
 8001cb6:	0003      	movs	r3, r0
 8001cb8:	b29b      	uxth	r3, r3
 8001cba:	001a      	movs	r2, r3
 8001cbc:	68fb      	ldr	r3, [r7, #12]
 8001cbe:	60da      	str	r2, [r3, #12]
}
 8001cc0:	46c0      	nop			; (mov r8, r8)
 8001cc2:	46bd      	mov	sp, r7
 8001cc4:	b006      	add	sp, #24
 8001cc6:	bd80      	pop	{r7, pc}
 8001cc8:	0000fff0 	.word	0x0000fff0

08001ccc <LL_USART_Init>:
  * @retval An ErrorStatus enumeration value:
  *          - SUCCESS: USART registers are initialized according to USART_InitStruct content
  *          - ERROR: Problem occurred during USART Registers initialization
  */
ErrorStatus LL_USART_Init(USART_TypeDef *USARTx, const LL_USART_InitTypeDef *USART_InitStruct)
{
 8001ccc:	b580      	push	{r7, lr}
 8001cce:	b084      	sub	sp, #16
 8001cd0:	af00      	add	r7, sp, #0
 8001cd2:	6078      	str	r0, [r7, #4]
 8001cd4:	6039      	str	r1, [r7, #0]
  ErrorStatus status = ERROR;
 8001cd6:	230f      	movs	r3, #15
 8001cd8:	18fb      	adds	r3, r7, r3
 8001cda:	2201      	movs	r2, #1
 8001cdc:	701a      	strb	r2, [r3, #0]
  uint32_t periphclk = LL_RCC_PERIPH_FREQUENCY_NO;
 8001cde:	2300      	movs	r3, #0
 8001ce0:	60bb      	str	r3, [r7, #8]
  assert_param(IS_LL_USART_HWCONTROL(USART_InitStruct->HardwareFlowControl));
  assert_param(IS_LL_USART_OVERSAMPLING(USART_InitStruct->OverSampling));

  /* USART needs to be in disabled state, in order to be able to configure some bits in
     CRx registers */
  if (LL_USART_IsEnabled(USARTx) == 0U)
 8001ce2:	687b      	ldr	r3, [r7, #4]
 8001ce4:	0018      	movs	r0, r3
 8001ce6:	f7ff ff7b 	bl	8001be0 <LL_USART_IsEnabled>
 8001cea:	1e03      	subs	r3, r0, #0
 8001cec:	d13b      	bne.n	8001d66 <LL_USART_Init+0x9a>
     * - DataWidth:          USART_CR1_M bits according to USART_InitStruct->DataWidth value
     * - Parity:             USART_CR1_PCE, USART_CR1_PS bits according to USART_InitStruct->Parity value
     * - TransferDirection:  USART_CR1_TE, USART_CR1_RE bits according to USART_InitStruct->TransferDirection value
     * - Oversampling:       USART_CR1_OVER8 bit according to USART_InitStruct->OverSampling value.
     */
    MODIFY_REG(USARTx->CR1,
 8001cee:	687b      	ldr	r3, [r7, #4]
 8001cf0:	681b      	ldr	r3, [r3, #0]
 8001cf2:	4a20      	ldr	r2, [pc, #128]	; (8001d74 <LL_USART_Init+0xa8>)
 8001cf4:	401a      	ands	r2, r3
 8001cf6:	683b      	ldr	r3, [r7, #0]
 8001cf8:	6859      	ldr	r1, [r3, #4]
 8001cfa:	683b      	ldr	r3, [r7, #0]
 8001cfc:	68db      	ldr	r3, [r3, #12]
 8001cfe:	4319      	orrs	r1, r3
 8001d00:	683b      	ldr	r3, [r7, #0]
 8001d02:	691b      	ldr	r3, [r3, #16]
 8001d04:	4319      	orrs	r1, r3
 8001d06:	683b      	ldr	r3, [r7, #0]
 8001d08:	699b      	ldr	r3, [r3, #24]
 8001d0a:	430b      	orrs	r3, r1
 8001d0c:	431a      	orrs	r2, r3
 8001d0e:	687b      	ldr	r3, [r7, #4]
 8001d10:	601a      	str	r2, [r3, #0]
    /*---------------------------- USART CR2 Configuration ---------------------
     * Configure USARTx CR2 (Stop bits) with parameters:
     * - Stop Bits:          USART_CR2_STOP bits according to USART_InitStruct->StopBits value.
     * - CLKEN, CPOL, CPHA and LBCL bits are to be configured using LL_USART_ClockInit().
     */
    LL_USART_SetStopBitsLength(USARTx, USART_InitStruct->StopBits);
 8001d12:	683b      	ldr	r3, [r7, #0]
 8001d14:	689a      	ldr	r2, [r3, #8]
 8001d16:	687b      	ldr	r3, [r7, #4]
 8001d18:	0011      	movs	r1, r2
 8001d1a:	0018      	movs	r0, r3
 8001d1c:	f7ff ff72 	bl	8001c04 <LL_USART_SetStopBitsLength>
    /*---------------------------- USART CR3 Configuration ---------------------
     * Configure USARTx CR3 (Hardware Flow Control) with parameters:
     * - HardwareFlowControl: USART_CR3_RTSE, USART_CR3_CTSE bits according to
     *   USART_InitStruct->HardwareFlowControl value.
     */
    LL_USART_SetHWFlowCtrl(USARTx, USART_InitStruct->HardwareFlowControl);
 8001d20:	683b      	ldr	r3, [r7, #0]
 8001d22:	695a      	ldr	r2, [r3, #20]
 8001d24:	687b      	ldr	r3, [r7, #4]
 8001d26:	0011      	movs	r1, r2
 8001d28:	0018      	movs	r0, r3
 8001d2a:	f7ff ff7f 	bl	8001c2c <LL_USART_SetHWFlowCtrl>
    }
#endif /* USART1 */
#if defined(USART1)
    else if (USARTx == USART2)
#else
    if (USARTx == USART2)
 8001d2e:	687b      	ldr	r3, [r7, #4]
 8001d30:	4a11      	ldr	r2, [pc, #68]	; (8001d78 <LL_USART_Init+0xac>)
 8001d32:	4293      	cmp	r3, r2
 8001d34:	d104      	bne.n	8001d40 <LL_USART_Init+0x74>
#endif /* USART1 */
    {
      periphclk = LL_RCC_GetUSARTClockFreq(LL_RCC_USART2_CLKSOURCE);
 8001d36:	200c      	movs	r0, #12
 8001d38:	f7ff fbbe 	bl	80014b8 <LL_RCC_GetUSARTClockFreq>
 8001d3c:	0003      	movs	r3, r0
 8001d3e:	60bb      	str	r3, [r7, #8]

    /* Configure the USART Baud Rate :
       - valid baud rate value (different from 0) is required
       - Peripheral clock as returned by RCC service, should be valid (different from 0).
    */
    if ((periphclk != LL_RCC_PERIPH_FREQUENCY_NO)
 8001d40:	68bb      	ldr	r3, [r7, #8]
 8001d42:	2b00      	cmp	r3, #0
 8001d44:	d00f      	beq.n	8001d66 <LL_USART_Init+0x9a>
        && (USART_InitStruct->BaudRate != 0U))
 8001d46:	683b      	ldr	r3, [r7, #0]
 8001d48:	681b      	ldr	r3, [r3, #0]
 8001d4a:	2b00      	cmp	r3, #0
 8001d4c:	d00b      	beq.n	8001d66 <LL_USART_Init+0x9a>
    {
      status = SUCCESS;
 8001d4e:	230f      	movs	r3, #15
 8001d50:	18fb      	adds	r3, r7, r3
 8001d52:	2200      	movs	r2, #0
 8001d54:	701a      	strb	r2, [r3, #0]
      LL_USART_SetBaudRate(USARTx,
                           periphclk,
                           USART_InitStruct->OverSampling,
 8001d56:	683b      	ldr	r3, [r7, #0]
 8001d58:	699a      	ldr	r2, [r3, #24]
                           USART_InitStruct->BaudRate);
 8001d5a:	683b      	ldr	r3, [r7, #0]
 8001d5c:	681b      	ldr	r3, [r3, #0]
      LL_USART_SetBaudRate(USARTx,
 8001d5e:	68b9      	ldr	r1, [r7, #8]
 8001d60:	6878      	ldr	r0, [r7, #4]
 8001d62:	f7ff ff77 	bl	8001c54 <LL_USART_SetBaudRate>
      assert_param(IS_LL_USART_BRR_MIN(USARTx->BRR));
    }
  }
  /* Endif (=> USART not in Disabled state => return ERROR) */

  return (status);
 8001d66:	230f      	movs	r3, #15
 8001d68:	18fb      	adds	r3, r7, r3
 8001d6a:	781b      	ldrb	r3, [r3, #0]
}
 8001d6c:	0018      	movs	r0, r3
 8001d6e:	46bd      	mov	sp, r7
 8001d70:	b004      	add	sp, #16
 8001d72:	bd80      	pop	{r7, pc}
 8001d74:	efff69f3 	.word	0xefff69f3
 8001d78:	40004400 	.word	0x40004400

08001d7c <LL_InitTick>:
  *         configuration by calling this function, for a delay use rather osDelay RTOS service.
  * @param  Ticks Number of ticks
  * @retval None
  */
__STATIC_INLINE void LL_InitTick(uint32_t HCLKFrequency, uint32_t Ticks)
{
 8001d7c:	b580      	push	{r7, lr}
 8001d7e:	b082      	sub	sp, #8
 8001d80:	af00      	add	r7, sp, #0
 8001d82:	6078      	str	r0, [r7, #4]
 8001d84:	6039      	str	r1, [r7, #0]
  /* Configure the SysTick to have interrupt in 1ms time base */
  SysTick->LOAD  = (uint32_t)((HCLKFrequency / Ticks) - 1UL);  /* set reload register */
 8001d86:	6839      	ldr	r1, [r7, #0]
 8001d88:	6878      	ldr	r0, [r7, #4]
 8001d8a:	f7fe f9bd 	bl	8000108 <__udivsi3>
 8001d8e:	0003      	movs	r3, r0
 8001d90:	001a      	movs	r2, r3
 8001d92:	4b06      	ldr	r3, [pc, #24]	; (8001dac <LL_InitTick+0x30>)
 8001d94:	3a01      	subs	r2, #1
 8001d96:	605a      	str	r2, [r3, #4]
  SysTick->VAL   = 0UL;                                       /* Load the SysTick Counter Value */
 8001d98:	4b04      	ldr	r3, [pc, #16]	; (8001dac <LL_InitTick+0x30>)
 8001d9a:	2200      	movs	r2, #0
 8001d9c:	609a      	str	r2, [r3, #8]
  SysTick->CTRL  = SysTick_CTRL_CLKSOURCE_Msk |
 8001d9e:	4b03      	ldr	r3, [pc, #12]	; (8001dac <LL_InitTick+0x30>)
 8001da0:	2205      	movs	r2, #5
 8001da2:	601a      	str	r2, [r3, #0]
                   SysTick_CTRL_ENABLE_Msk;                   /* Enable the Systick Timer */
}
 8001da4:	46c0      	nop			; (mov r8, r8)
 8001da6:	46bd      	mov	sp, r7
 8001da8:	b002      	add	sp, #8
 8001daa:	bd80      	pop	{r7, pc}
 8001dac:	e000e010 	.word	0xe000e010

08001db0 <LL_Init1msTick>:
  * @param  HCLKFrequency HCLK frequency in Hz
  * @note   HCLK frequency can be calculated thanks to RCC helper macro or function @ref LL_RCC_GetSystemClocksFreq
  * @retval None
  */
void LL_Init1msTick(uint32_t HCLKFrequency)
{
 8001db0:	b580      	push	{r7, lr}
 8001db2:	b082      	sub	sp, #8
 8001db4:	af00      	add	r7, sp, #0
 8001db6:	6078      	str	r0, [r7, #4]
  /* Use frequency provided in argument */
  LL_InitTick(HCLKFrequency, 1000U);
 8001db8:	23fa      	movs	r3, #250	; 0xfa
 8001dba:	009a      	lsls	r2, r3, #2
 8001dbc:	687b      	ldr	r3, [r7, #4]
 8001dbe:	0011      	movs	r1, r2
 8001dc0:	0018      	movs	r0, r3
 8001dc2:	f7ff ffdb 	bl	8001d7c <LL_InitTick>
}
 8001dc6:	46c0      	nop			; (mov r8, r8)
 8001dc8:	46bd      	mov	sp, r7
 8001dca:	b002      	add	sp, #8
 8001dcc:	bd80      	pop	{r7, pc}
	...

08001dd0 <LL_mDelay>:
  *         will configure Systick to 1ms
  * @param  Delay specifies the delay time length, in milliseconds.
  * @retval None
  */
void LL_mDelay(uint32_t Delay)
{
 8001dd0:	b580      	push	{r7, lr}
 8001dd2:	b084      	sub	sp, #16
 8001dd4:	af00      	add	r7, sp, #0
 8001dd6:	6078      	str	r0, [r7, #4]
  __IO uint32_t  tmp = SysTick->CTRL;  /* Clear the COUNTFLAG first */
 8001dd8:	4b0d      	ldr	r3, [pc, #52]	; (8001e10 <LL_mDelay+0x40>)
 8001dda:	681b      	ldr	r3, [r3, #0]
 8001ddc:	60fb      	str	r3, [r7, #12]
  /* Add this code to indicate that local variable is not used */
  ((void)tmp);
 8001dde:	68fb      	ldr	r3, [r7, #12]

  /* Add a period to guaranty minimum wait */
  if (Delay < LL_MAX_DELAY)
 8001de0:	687b      	ldr	r3, [r7, #4]
 8001de2:	3301      	adds	r3, #1
 8001de4:	d00c      	beq.n	8001e00 <LL_mDelay+0x30>
  {
    Delay++;
 8001de6:	687b      	ldr	r3, [r7, #4]
 8001de8:	3301      	adds	r3, #1
 8001dea:	607b      	str	r3, [r7, #4]
 8001dec:	e008      	b.n	8001e00 <LL_mDelay+0x30>
  }

  while (Delay)
  {
    if ((SysTick->CTRL & SysTick_CTRL_COUNTFLAG_Msk) != 0U)
 8001dee:	4b08      	ldr	r3, [pc, #32]	; (8001e10 <LL_mDelay+0x40>)
 8001df0:	681a      	ldr	r2, [r3, #0]
 8001df2:	2380      	movs	r3, #128	; 0x80
 8001df4:	025b      	lsls	r3, r3, #9
 8001df6:	4013      	ands	r3, r2
 8001df8:	d002      	beq.n	8001e00 <LL_mDelay+0x30>
    {
      Delay--;
 8001dfa:	687b      	ldr	r3, [r7, #4]
 8001dfc:	3b01      	subs	r3, #1
 8001dfe:	607b      	str	r3, [r7, #4]
  while (Delay)
 8001e00:	687b      	ldr	r3, [r7, #4]
 8001e02:	2b00      	cmp	r3, #0
 8001e04:	d1f3      	bne.n	8001dee <LL_mDelay+0x1e>
    }
  }
}
 8001e06:	46c0      	nop			; (mov r8, r8)
 8001e08:	46c0      	nop			; (mov r8, r8)
 8001e0a:	46bd      	mov	sp, r7
 8001e0c:	b004      	add	sp, #16
 8001e0e:	bd80      	pop	{r7, pc}
 8001e10:	e000e010 	.word	0xe000e010

08001e14 <LL_SetSystemCoreClock>:
  * @note   Variable can be calculated also through SystemCoreClockUpdate function.
  * @param  HCLKFrequency HCLK frequency in Hz (can be calculated thanks to RCC helper macro)
  * @retval None
  */
void LL_SetSystemCoreClock(uint32_t HCLKFrequency)
{
 8001e14:	b580      	push	{r7, lr}
 8001e16:	b082      	sub	sp, #8
 8001e18:	af00      	add	r7, sp, #0
 8001e1a:	6078      	str	r0, [r7, #4]
  /* HCLK clock frequency */
  SystemCoreClock = HCLKFrequency;
 8001e1c:	4b03      	ldr	r3, [pc, #12]	; (8001e2c <LL_SetSystemCoreClock+0x18>)
 8001e1e:	687a      	ldr	r2, [r7, #4]
 8001e20:	601a      	str	r2, [r3, #0]
}
 8001e22:	46c0      	nop			; (mov r8, r8)
 8001e24:	46bd      	mov	sp, r7
 8001e26:	b002      	add	sp, #8
 8001e28:	bd80      	pop	{r7, pc}
 8001e2a:	46c0      	nop			; (mov r8, r8)
 8001e2c:	20000004 	.word	0x20000004

08001e30 <memset>:
 8001e30:	0003      	movs	r3, r0
 8001e32:	1882      	adds	r2, r0, r2
 8001e34:	4293      	cmp	r3, r2
 8001e36:	d100      	bne.n	8001e3a <memset+0xa>
 8001e38:	4770      	bx	lr
 8001e3a:	7019      	strb	r1, [r3, #0]
 8001e3c:	3301      	adds	r3, #1
 8001e3e:	e7f9      	b.n	8001e34 <memset+0x4>

08001e40 <__libc_init_array>:
 8001e40:	b570      	push	{r4, r5, r6, lr}
 8001e42:	2600      	movs	r6, #0
 8001e44:	4c0c      	ldr	r4, [pc, #48]	; (8001e78 <__libc_init_array+0x38>)
 8001e46:	4d0d      	ldr	r5, [pc, #52]	; (8001e7c <__libc_init_array+0x3c>)
 8001e48:	1b64      	subs	r4, r4, r5
 8001e4a:	10a4      	asrs	r4, r4, #2
 8001e4c:	42a6      	cmp	r6, r4
 8001e4e:	d109      	bne.n	8001e64 <__libc_init_array+0x24>
 8001e50:	2600      	movs	r6, #0
 8001e52:	f000 f819 	bl	8001e88 <_init>
 8001e56:	4c0a      	ldr	r4, [pc, #40]	; (8001e80 <__libc_init_array+0x40>)
 8001e58:	4d0a      	ldr	r5, [pc, #40]	; (8001e84 <__libc_init_array+0x44>)
 8001e5a:	1b64      	subs	r4, r4, r5
 8001e5c:	10a4      	asrs	r4, r4, #2
 8001e5e:	42a6      	cmp	r6, r4
 8001e60:	d105      	bne.n	8001e6e <__libc_init_array+0x2e>
 8001e62:	bd70      	pop	{r4, r5, r6, pc}
 8001e64:	00b3      	lsls	r3, r6, #2
 8001e66:	58eb      	ldr	r3, [r5, r3]
 8001e68:	4798      	blx	r3
 8001e6a:	3601      	adds	r6, #1
 8001e6c:	e7ee      	b.n	8001e4c <__libc_init_array+0xc>
 8001e6e:	00b3      	lsls	r3, r6, #2
 8001e70:	58eb      	ldr	r3, [r5, r3]
 8001e72:	4798      	blx	r3
 8001e74:	3601      	adds	r6, #1
 8001e76:	e7f2      	b.n	8001e5e <__libc_init_array+0x1e>
 8001e78:	08001ed4 	.word	0x08001ed4
 8001e7c:	08001ed4 	.word	0x08001ed4
 8001e80:	08001ed8 	.word	0x08001ed8
 8001e84:	08001ed4 	.word	0x08001ed4

08001e88 <_init>:
 8001e88:	b5f8      	push	{r3, r4, r5, r6, r7, lr}
 8001e8a:	46c0      	nop			; (mov r8, r8)
 8001e8c:	bcf8      	pop	{r3, r4, r5, r6, r7}
 8001e8e:	bc08      	pop	{r3}
 8001e90:	469e      	mov	lr, r3
 8001e92:	4770      	bx	lr

08001e94 <_fini>:
 8001e94:	b5f8      	push	{r3, r4, r5, r6, r7, lr}
 8001e96:	46c0      	nop			; (mov r8, r8)
 8001e98:	bcf8      	pop	{r3, r4, r5, r6, r7}
 8001e9a:	bc08      	pop	{r3}
 8001e9c:	469e      	mov	lr, r3
 8001e9e:	4770      	bx	lr
